(lp0
(S'elfflags'
p1
ccopy_reg
_reconstructor
p2
(cino.utils
SpaceList
p3
c__builtin__
list
p4
(lp5
S'-Os'
p6
aS'-Wl,--gc-sections'
p7
aS'-mmcu=atmega32u4'
p8
atp9
Rp10
tp11
a(S'version.txt'
p12
S'/Applications/Arduino.app/Contents/Resources/Java/lib/version.txt'
p13
tp14
a(S'used_libs'
p15
(lp16
S'lib/Bleuette'
p17
aS'lib/SerialCommand'
p18
aS'lib/Sequencer'
p19
aS'lib/ServoController'
p20
aS'/Applications/Arduino.app/Contents/Resources/Java/hardware/arduino/cores/arduino'
p21
atp22
a(S'cc'
p23
S'/Applications/Arduino.app/Contents/Resources/Java/hardware/tools/avr/bin/avr-gcc'
p24
tp25
a(S'build_dir'
p26
S'.build/leonardo'
p27
tp28
a(S'arduino_core_dir'
p29
g21
tp30
a(S'boards.txt'
p31
S'/Applications/Arduino.app/Contents/Resources/Java/hardware/arduino/boards.txt'
p32
tp33
a(S'cxxflags'
p34
g2
(g3
g4
(lp35
S'-fno-exceptions'
p36
atp37
Rp38
tp39
a(S'arduino_variants_dir'
p40
S'/Applications/Arduino.app/Contents/Resources/Java/hardware/arduino/variants'
p41
tp42
a(S'deps'
p43
g2
(g3
g4
(lp44
S'.build/leonardo/src/dependencies.d'
p45
aS'.build/leonardo/arduino/dependencies.d'
p46
aS'.build/leonardo/Bleuette/dependencies.d'
p47
aS'.build/leonardo/ServoController/dependencies.d'
p48
aS'.build/leonardo/Sequencer/dependencies.d'
p49
aS'.build/leonardo/SerialCommand/dependencies.d'
p50
atp51
Rp52
tp53
a(S'ar'
p54
S'/Applications/Arduino.app/Contents/Resources/Java/hardware/tools/avr/bin/avr-ar'
p55
tp56
a(S'names'
p57
(dp58
S'cpp'
p59
S'%s.cpp'
p60
sS'obj'
p61
S'%s.o'
p62
sS'deps'
p63
S'%s.d'
p64
sS'lib'
p65
S'lib%s.a'
p66
stp67
a(S'cflags'
p68
g2
(g3
g4
(lp69
g8
aS'-ffunction-sections'
p70
aS'-fdata-sections'
p71
aS'-g'
p72
ag6
aS'-w'
p73
aS'-DF_CPU=16000000L'
p74
aS'-DARDUINO=100'
p75
aS'-I/Applications/Arduino.app/Contents/Resources/Java/hardware/arduino/cores/arduino'
p76
aS'-DUSB_VID=0x2341'
p77
aS'-DUSB_PID=0x8036'
p78
aS'-I/Applications/Arduino.app/Contents/Resources/Java/hardware/arduino/variants/leonardo'
p79
aS'-Ilib/Bleuette'
p80
aS'-Ilib/SerialCommand'
p81
aS'-Ilib/Sequencer'
p82
aS'-Ilib/ServoController'
p83
aS'-I/Applications/Arduino.app/Contents/Resources/Java/hardware/arduino/cores/arduino'
p84
atp85
Rp86
tp87
a(S'arduino_libraries_dir'
p88
S'/Applications/Arduino.app/Contents/Resources/Java/libraries'
p89
tp90
a(S'arduino_lib_version'
p91
g2
(cino.environment
Version
p92
c__builtin__
tuple
p93
(I1
I0
tp94
tp95
Rp96
tp97
a(S'objcopy'
p98
S'/Applications/Arduino.app/Contents/Resources/Java/hardware/tools/avr/bin/avr-objcopy'
p99
tp100
a(S'board_models'
p101
cino.environment
BoardModels
p102
((lp103
(lp104
S'uno'
p105
a(dp106
S'bootloader'
p107
(dp108
S'extended_fuses'
p109
S'0x05'
p110
sS'high_fuses'
p111
S'0xde'
p112
sS'low_fuses'
p113
S'0xff'
p114
sS'lock_bits'
p115
S'0x0F'
p116
sS'file'
p117
S'optiboot_atmega328.hex'
p118
sS'path'
p119
S'optiboot'
p120
sS'unlock_bits'
p121
S'0x3F'
p122
ssS'upload'
p123
(dp124
S'speed'
p125
S'115200'
p126
sS'maximum_size'
p127
S'32256'
p128
sS'protocol'
p129
S'arduino'
p130
ssS'name'
p131
S'Arduino Uno'
p132
sS'build'
p133
(dp134
S'core'
p135
S'arduino'
p136
sS'mcu'
p137
S'atmega328p'
p138
sS'f_cpu'
p139
S'16000000L'
p140
sS'variant'
p141
S'standard'
p142
ssaa(lp143
S'atmega328'
p144
a(dp145
S'bootloader'
p146
(dp147
S'extended_fuses'
p148
S'0x05'
p149
sS'high_fuses'
p150
S'0xDA'
p151
sS'low_fuses'
p152
S'0xFF'
p153
sS'lock_bits'
p154
S'0x0F'
p155
sS'file'
p156
S'ATmegaBOOT_168_atmega328.hex'
p157
sS'path'
p158
S'atmega'
p159
sS'unlock_bits'
p160
S'0x3F'
p161
ssS'upload'
p162
(dp163
S'speed'
p164
S'57600'
p165
sS'maximum_size'
p166
S'30720'
p167
sS'protocol'
p168
S'arduino'
p169
ssS'name'
p170
S'Arduino Duemilanove w/ ATmega328'
p171
sS'build'
p172
(dp173
S'core'
p174
S'arduino'
p175
sS'mcu'
p176
S'atmega328p'
p177
sS'f_cpu'
p178
S'16000000L'
p179
sS'variant'
p180
S'standard'
p181
ssaa(lp182
S'diecimila'
p183
a(dp184
S'bootloader'
p185
(dp186
S'extended_fuses'
p187
S'0x00'
p188
sS'high_fuses'
p189
S'0xdd'
p190
sS'low_fuses'
p191
S'0xff'
p192
sS'lock_bits'
p193
S'0x0F'
p194
sS'file'
p195
S'ATmegaBOOT_168_diecimila.hex'
p196
sS'path'
p197
S'atmega'
p198
sS'unlock_bits'
p199
S'0x3F'
p200
ssS'upload'
p201
(dp202
S'speed'
p203
S'19200'
p204
sS'maximum_size'
p205
S'14336'
p206
sS'protocol'
p207
S'arduino'
p208
ssS'name'
p209
S'Arduino Diecimila or Duemilanove w/ ATmega168'
p210
sS'build'
p211
(dp212
S'core'
p213
S'arduino'
p214
sS'mcu'
p215
S'atmega168'
p216
sS'f_cpu'
p217
S'16000000L'
p218
sS'variant'
p219
S'standard'
p220
ssaa(lp221
S'nano328'
p222
a(dp223
S'bootloader'
p224
(dp225
S'extended_fuses'
p226
S'0x05'
p227
sS'high_fuses'
p228
S'0xDA'
p229
sS'low_fuses'
p230
S'0xFF'
p231
sS'lock_bits'
p232
S'0x0F'
p233
sS'file'
p234
S'ATmegaBOOT_168_atmega328.hex'
p235
sS'path'
p236
S'atmega'
p237
sS'unlock_bits'
p238
S'0x3F'
p239
ssS'upload'
p240
(dp241
S'speed'
p242
S'57600'
p243
sS'maximum_size'
p244
S'30720'
p245
sS'protocol'
p246
S'arduino'
p247
ssS'name'
p248
S'Arduino Nano w/ ATmega328'
p249
sS'build'
p250
(dp251
S'core'
p252
S'arduino'
p253
sS'mcu'
p254
S'atmega328p'
p255
sS'f_cpu'
p256
S'16000000L'
p257
sS'variant'
p258
S'eightanaloginputs'
p259
ssaa(lp260
S'nano'
p261
a(dp262
S'bootloader'
p263
(dp264
S'extended_fuses'
p265
S'0x00'
p266
sS'high_fuses'
p267
S'0xdd'
p268
sS'low_fuses'
p269
S'0xff'
p270
sS'lock_bits'
p271
S'0x0F'
p272
sS'file'
p273
S'ATmegaBOOT_168_diecimila.hex'
p274
sS'path'
p275
S'atmega'
p276
sS'unlock_bits'
p277
S'0x3F'
p278
ssS'upload'
p279
(dp280
S'speed'
p281
S'19200'
p282
sS'maximum_size'
p283
S'14336'
p284
sS'protocol'
p285
S'arduino'
p286
ssS'name'
p287
S'Arduino Nano w/ ATmega168'
p288
sS'build'
p289
(dp290
S'core'
p291
S'arduino'
p292
sS'mcu'
p293
S'atmega168'
p294
sS'f_cpu'
p295
S'16000000L'
p296
sS'variant'
p297
S'eightanaloginputs'
p298
ssaa(lp299
S'mega2560'
p300
a(dp301
S'bootloader'
p302
(dp303
S'extended_fuses'
p304
S'0xFD'
p305
sS'high_fuses'
p306
S'0xD8'
p307
sS'low_fuses'
p308
S'0xFF'
p309
sS'lock_bits'
p310
S'0x0F'
p311
sS'file'
p312
S'stk500boot_v2_mega2560.hex'
p313
sS'path'
p314
S'stk500v2'
p315
sS'unlock_bits'
p316
S'0x3F'
p317
ssS'upload'
p318
(dp319
S'speed'
p320
S'115200'
p321
sS'maximum_size'
p322
S'258048'
p323
sS'protocol'
p324
S'wiring'
p325
ssS'name'
p326
S'Arduino Mega 2560 or Mega ADK'
p327
sS'build'
p328
(dp329
S'core'
p330
S'arduino'
p331
sS'mcu'
p332
S'atmega2560'
p333
sS'f_cpu'
p334
S'16000000L'
p335
sS'variant'
p336
S'mega'
p337
ssaa(lp338
S'mega'
p339
a(dp340
S'bootloader'
p341
(dp342
S'extended_fuses'
p343
S'0xF5'
p344
sS'high_fuses'
p345
S'0xDA'
p346
sS'low_fuses'
p347
S'0xFF'
p348
sS'lock_bits'
p349
S'0x0F'
p350
sS'file'
p351
S'ATmegaBOOT_168_atmega1280.hex'
p352
sS'path'
p353
S'atmega'
p354
sS'unlock_bits'
p355
S'0x3F'
p356
ssS'upload'
p357
(dp358
S'speed'
p359
S'57600'
p360
sS'maximum_size'
p361
S'126976'
p362
sS'protocol'
p363
S'arduino'
p364
ssS'name'
p365
S'Arduino Mega (ATmega1280)'
p366
sS'build'
p367
(dp368
S'core'
p369
S'arduino'
p370
sS'mcu'
p371
S'atmega1280'
p372
sS'f_cpu'
p373
S'16000000L'
p374
sS'variant'
p375
S'mega'
p376
ssaa(lp377
S'leonardo'
p378
a(dp379
S'bootloader'
p380
(dp381
S'extended_fuses'
p382
S'0xcb'
p383
sS'high_fuses'
p384
S'0xd8'
p385
sS'low_fuses'
p386
S'0xff'
p387
sS'lock_bits'
p388
S'0x2F'
p389
sS'file'
p390
S'Caterina-Leonardo.hex'
p391
sS'path'
p392
S'caterina'
p393
sS'unlock_bits'
p394
S'0x3F'
p395
ssS'upload'
p396
(dp397
S'speed'
p398
S'57600'
p399
sS'maximum_size'
p400
S'28672'
p401
sS'protocol'
p402
S'avr109'
p403
sS'disable_flushing'
p404
S'true'
p405
ssS'name'
p406
S'Arduino Leonardo'
p407
sS'build'
p408
(dp409
S'core'
p410
S'arduino'
p411
sS'f_cpu'
p412
S'16000000L'
p413
sS'vid'
p414
S'0x2341'
p415
sS'pid'
p416
S'0x8036'
p417
sS'variant'
p418
S'leonardo'
p419
sS'mcu'
p420
S'atmega32u4'
p421
ssaa(lp422
S'esplora'
p423
a(dp424
S'bootloader'
p425
(dp426
S'extended_fuses'
p427
S'0xcb'
p428
sS'high_fuses'
p429
S'0xd8'
p430
sS'low_fuses'
p431
S'0xff'
p432
sS'lock_bits'
p433
S'0x2F'
p434
sS'file'
p435
S'Caterina-Esplora.hex'
p436
sS'path'
p437
S'caterina'
p438
sS'unlock_bits'
p439
S'0x3F'
p440
ssS'upload'
p441
(dp442
S'speed'
p443
S'57600'
p444
sS'maximum_size'
p445
S'28672'
p446
sS'protocol'
p447
S'avr109'
p448
sS'disable_flushing'
p449
S'true'
p450
ssS'name'
p451
S'Arduino Esplora'
p452
sS'build'
p453
(dp454
S'core'
p455
S'arduino'
p456
sS'f_cpu'
p457
S'16000000L'
p458
sS'vid'
p459
S'0x2341'
p460
sS'pid'
p461
S'0x803C'
p462
sS'variant'
p463
S'leonardo'
p464
sS'mcu'
p465
S'atmega32u4'
p466
ssaa(lp467
S'micro'
p468
a(dp469
S'bootloader'
p470
(dp471
S'extended_fuses'
p472
S'0xcb'
p473
sS'high_fuses'
p474
S'0xd8'
p475
sS'low_fuses'
p476
S'0xff'
p477
sS'lock_bits'
p478
S'0x2F'
p479
sS'file'
p480
S'Caterina-Micro.hex'
p481
sS'path'
p482
S'caterina'
p483
sS'unlock_bits'
p484
S'0x3F'
p485
ssS'upload'
p486
(dp487
S'speed'
p488
S'57600'
p489
sS'maximum_size'
p490
S'28672'
p491
sS'protocol'
p492
S'avr109'
p493
sS'disable_flushing'
p494
S'true'
p495
ssS'name'
p496
S'Arduino Micro'
p497
sS'build'
p498
(dp499
S'core'
p500
S'arduino'
p501
sS'f_cpu'
p502
S'16000000L'
p503
sS'vid'
p504
S'0x2341'
p505
sS'pid'
p506
S'0x8037'
p507
sS'variant'
p508
S'micro'
p509
sS'mcu'
p510
S'atmega32u4'
p511
ssaa(lp512
S'mini328'
p513
a(dp514
S'bootloader'
p515
(dp516
S'extended_fuses'
p517
S'0x05'
p518
sS'high_fuses'
p519
S'0xd8'
p520
sS'low_fuses'
p521
S'0xff'
p522
sS'lock_bits'
p523
S'0x0F'
p524
sS'file'
p525
S'optiboot_atmega328-Mini.hex'
p526
sS'path'
p527
S'optiboot'
p528
sS'unlock_bits'
p529
S'0x3F'
p530
ssS'upload'
p531
(dp532
S'speed'
p533
S'115200'
p534
sS'maximum_size'
p535
S'28672'
p536
sS'protocol'
p537
S'arduino'
p538
ssS'name'
p539
S'Arduino Mini w/ ATmega328'
p540
sS'build'
p541
(dp542
S'core'
p543
S'arduino'
p544
sS'mcu'
p545
S'atmega328p'
p546
sS'f_cpu'
p547
S'16000000L'
p548
sS'variant'
p549
S'eightanaloginputs'
p550
ssaa(lp551
S'mini'
p552
a(dp553
S'bootloader'
p554
(dp555
S'extended_fuses'
p556
S'0x00'
p557
sS'high_fuses'
p558
S'0xdd'
p559
sS'low_fuses'
p560
S'0xff'
p561
sS'lock_bits'
p562
S'0x0F'
p563
sS'file'
p564
S'ATmegaBOOT_168_ng.hex'
p565
sS'path'
p566
S'atmega'
p567
sS'unlock_bits'
p568
S'0x3F'
p569
ssS'upload'
p570
(dp571
S'speed'
p572
S'19200'
p573
sS'maximum_size'
p574
S'14336'
p575
sS'protocol'
p576
S'arduino'
p577
ssS'name'
p578
S'Arduino Mini w/ ATmega168'
p579
sS'build'
p580
(dp581
S'core'
p582
S'arduino'
p583
sS'mcu'
p584
S'atmega168'
p585
sS'f_cpu'
p586
S'16000000L'
p587
sS'variant'
p588
S'eightanaloginputs'
p589
ssaa(lp590
S'ethernet'
p591
a(dp592
S'bootloader'
p593
(dp594
S'extended_fuses'
p595
S'0x05'
p596
sS'high_fuses'
p597
S'0xde'
p598
sS'low_fuses'
p599
S'0xff'
p600
sS'lock_bits'
p601
S'0x0F'
p602
sS'file'
p603
S'optiboot_atmega328.hex'
p604
sS'path'
p605
S'optiboot'
p606
sS'unlock_bits'
p607
S'0x3F'
p608
ssS'upload'
p609
(dp610
S'speed'
p611
S'115200'
p612
sS'maximum_size'
p613
S'32256'
p614
sS'protocol'
p615
S'arduino'
p616
ssS'name'
p617
S'Arduino Ethernet'
p618
sS'build'
p619
(dp620
S'f_cpu'
p621
S'16000000L'
p622
sS'mcu'
p623
S'atmega328p'
p624
sS'variant'
p625
S'standard'
p626
sS'core'
p627
S'arduino'
p628
ssaa(lp629
S'fio'
p630
a(dp631
S'bootloader'
p632
(dp633
S'extended_fuses'
p634
S'0x05'
p635
sS'high_fuses'
p636
S'0xDA'
p637
sS'low_fuses'
p638
S'0xFF'
p639
sS'lock_bits'
p640
S'0x0F'
p641
sS'file'
p642
S'ATmegaBOOT_168_atmega328_pro_8MHz.hex'
p643
sS'path'
p644
S'arduino:atmega'
p645
sS'unlock_bits'
p646
S'0x3F'
p647
ssS'upload'
p648
(dp649
S'speed'
p650
S'57600'
p651
sS'maximum_size'
p652
S'30720'
p653
sS'protocol'
p654
S'arduino'
p655
ssS'name'
p656
S'Arduino Fio'
p657
sS'build'
p658
(dp659
S'core'
p660
S'arduino'
p661
sS'mcu'
p662
S'atmega328p'
p663
sS'f_cpu'
p664
S'8000000L'
p665
sS'variant'
p666
S'eightanaloginputs'
p667
ssaa(lp668
S'bt328'
p669
a(dp670
S'bootloader'
p671
(dp672
S'extended_fuses'
p673
S'0x05'
p674
sS'high_fuses'
p675
S'0xd8'
p676
sS'low_fuses'
p677
S'0xff'
p678
sS'lock_bits'
p679
S'0x0F'
p680
sS'file'
p681
S'ATmegaBOOT_168_atmega328_bt.hex'
p682
sS'path'
p683
S'bt'
p684
sS'unlock_bits'
p685
S'0x3F'
p686
ssS'upload'
p687
(dp688
S'speed'
p689
S'19200'
p690
sS'maximum_size'
p691
S'28672'
p692
sS'protocol'
p693
S'arduino'
p694
sS'disable_flushing'
p695
S'true'
p696
ssS'name'
p697
S'Arduino BT w/ ATmega328'
p698
sS'build'
p699
(dp700
S'core'
p701
S'arduino'
p702
sS'mcu'
p703
S'atmega328p'
p704
sS'f_cpu'
p705
S'16000000L'
p706
sS'variant'
p707
S'eightanaloginputs'
p708
ssaa(lp709
S'bt'
p710
a(dp711
S'bootloader'
p712
(dp713
S'extended_fuses'
p714
S'0x00'
p715
sS'high_fuses'
p716
S'0xdd'
p717
sS'low_fuses'
p718
S'0xff'
p719
sS'lock_bits'
p720
S'0x0F'
p721
sS'file'
p722
S'ATmegaBOOT_168.hex'
p723
sS'path'
p724
S'bt'
p725
sS'unlock_bits'
p726
S'0x3F'
p727
ssS'upload'
p728
(dp729
S'speed'
p730
S'19200'
p731
sS'maximum_size'
p732
S'14336'
p733
sS'protocol'
p734
S'arduino'
p735
sS'disable_flushing'
p736
S'true'
p737
ssS'name'
p738
S'Arduino BT w/ ATmega168'
p739
sS'build'
p740
(dp741
S'core'
p742
S'arduino'
p743
sS'mcu'
p744
S'atmega168'
p745
sS'f_cpu'
p746
S'16000000L'
p747
sS'variant'
p748
S'eightanaloginputs'
p749
ssaa(lp750
S'LilyPadUSB'
p751
a(dp752
S'bootloader'
p753
(dp754
S'extended_fuses'
p755
S'0xce'
p756
sS'high_fuses'
p757
S'0xd8'
p758
sS'low_fuses'
p759
S'0xff'
p760
sS'lock_bits'
p761
S'0x2F'
p762
sS'file'
p763
S'Caterina-LilyPadUSB.hex'
p764
sS'path'
p765
S'caterina-LilyPadUSB'
p766
sS'unlock_bits'
p767
S'0x3F'
p768
ssS'upload'
p769
(dp770
S'speed'
p771
S'57600'
p772
sS'maximum_size'
p773
S'28672'
p774
sS'protocol'
p775
S'avr109'
p776
sS'disable_flushing'
p777
S'true'
p778
ssS'name'
p779
S'LilyPad Arduino USB'
p780
sS'build'
p781
(dp782
S'core'
p783
S'arduino'
p784
sS'f_cpu'
p785
S'8000000L'
p786
sS'vid'
p787
S'0x1B4F'
p788
sS'pid'
p789
S'0x9208'
p790
sS'variant'
p791
S'leonardo'
p792
sS'mcu'
p793
S'atmega32u4'
p794
ssaa(lp795
S'lilypad328'
p796
a(dp797
S'bootloader'
p798
(dp799
S'extended_fuses'
p800
S'0x05'
p801
sS'high_fuses'
p802
S'0xDA'
p803
sS'low_fuses'
p804
S'0xFF'
p805
sS'lock_bits'
p806
S'0x0F'
p807
sS'file'
p808
S'ATmegaBOOT_168_atmega328_pro_8MHz.hex'
p809
sS'path'
p810
S'atmega'
p811
sS'unlock_bits'
p812
S'0x3F'
p813
ssS'upload'
p814
(dp815
S'speed'
p816
S'57600'
p817
sS'maximum_size'
p818
S'30720'
p819
sS'protocol'
p820
S'arduino'
p821
ssS'name'
p822
S'LilyPad Arduino w/ ATmega328'
p823
sS'build'
p824
(dp825
S'core'
p826
S'arduino'
p827
sS'mcu'
p828
S'atmega328p'
p829
sS'f_cpu'
p830
S'8000000L'
p831
sS'variant'
p832
S'standard'
p833
ssaa(lp834
S'lilypad'
p835
a(dp836
S'bootloader'
p837
(dp838
S'extended_fuses'
p839
S'0x00'
p840
sS'high_fuses'
p841
S'0xdd'
p842
sS'low_fuses'
p843
S'0xe2'
p844
sS'lock_bits'
p845
S'0x0F'
p846
sS'file'
p847
S'LilyPadBOOT_168.hex'
p848
sS'path'
p849
S'lilypad'
p850
sS'unlock_bits'
p851
S'0x3F'
p852
ssS'upload'
p853
(dp854
S'speed'
p855
S'19200'
p856
sS'maximum_size'
p857
S'14336'
p858
sS'protocol'
p859
S'arduino'
p860
ssS'name'
p861
S'LilyPad Arduino w/ ATmega168'
p862
sS'build'
p863
(dp864
S'core'
p865
S'arduino'
p866
sS'mcu'
p867
S'atmega168'
p868
sS'f_cpu'
p869
S'8000000L'
p870
sS'variant'
p871
S'standard'
p872
ssaa(lp873
S'pro5v328'
p874
a(dp875
S'bootloader'
p876
(dp877
S'extended_fuses'
p878
S'0x05'
p879
sS'high_fuses'
p880
S'0xDA'
p881
sS'low_fuses'
p882
S'0xFF'
p883
sS'lock_bits'
p884
S'0x0F'
p885
sS'file'
p886
S'ATmegaBOOT_168_atmega328.hex'
p887
sS'path'
p888
S'atmega'
p889
sS'unlock_bits'
p890
S'0x3F'
p891
ssS'upload'
p892
(dp893
S'speed'
p894
S'57600'
p895
sS'maximum_size'
p896
S'30720'
p897
sS'protocol'
p898
S'arduino'
p899
ssS'name'
p900
S'Arduino Pro or Pro Mini (5V, 16 MHz) w/ ATmega328'
p901
sS'build'
p902
(dp903
S'core'
p904
S'arduino'
p905
sS'mcu'
p906
S'atmega328p'
p907
sS'f_cpu'
p908
S'16000000L'
p909
sS'variant'
p910
S'standard'
p911
ssaa(lp912
S'pro5v'
p913
a(dp914
S'bootloader'
p915
(dp916
S'extended_fuses'
p917
S'0x00'
p918
sS'high_fuses'
p919
S'0xdd'
p920
sS'low_fuses'
p921
S'0xff'
p922
sS'lock_bits'
p923
S'0x0F'
p924
sS'file'
p925
S'ATmegaBOOT_168_diecimila.hex'
p926
sS'path'
p927
S'atmega'
p928
sS'unlock_bits'
p929
S'0x3F'
p930
ssS'upload'
p931
(dp932
S'speed'
p933
S'19200'
p934
sS'maximum_size'
p935
S'14336'
p936
sS'protocol'
p937
S'arduino'
p938
ssS'name'
p939
S'Arduino Pro or Pro Mini (5V, 16 MHz) w/ ATmega168'
p940
sS'build'
p941
(dp942
S'core'
p943
S'arduino'
p944
sS'mcu'
p945
S'atmega168'
p946
sS'f_cpu'
p947
S'16000000L'
p948
sS'variant'
p949
S'standard'
p950
ssaa(lp951
S'pro328'
p952
a(dp953
S'bootloader'
p954
(dp955
S'extended_fuses'
p956
S'0x05'
p957
sS'high_fuses'
p958
S'0xDA'
p959
sS'low_fuses'
p960
S'0xFF'
p961
sS'lock_bits'
p962
S'0x0F'
p963
sS'file'
p964
S'ATmegaBOOT_168_atmega328_pro_8MHz.hex'
p965
sS'path'
p966
S'atmega'
p967
sS'unlock_bits'
p968
S'0x3F'
p969
ssS'upload'
p970
(dp971
S'speed'
p972
S'57600'
p973
sS'maximum_size'
p974
S'30720'
p975
sS'protocol'
p976
S'arduino'
p977
ssS'name'
p978
S'Arduino Pro or Pro Mini (3.3V, 8 MHz) w/ ATmega328'
p979
sS'build'
p980
(dp981
S'core'
p982
S'arduino'
p983
sS'mcu'
p984
S'atmega328p'
p985
sS'f_cpu'
p986
S'8000000L'
p987
sS'variant'
p988
S'standard'
p989
ssaa(lp990
S'pro'
p991
a(dp992
S'bootloader'
p993
(dp994
S'extended_fuses'
p995
S'0x00'
p996
sS'high_fuses'
p997
S'0xdd'
p998
sS'low_fuses'
p999
S'0xc6'
p1000
sS'lock_bits'
p1001
S'0x0F'
p1002
sS'file'
p1003
S'ATmegaBOOT_168_pro_8MHz.hex'
p1004
sS'path'
p1005
S'atmega'
p1006
sS'unlock_bits'
p1007
S'0x3F'
p1008
ssS'upload'
p1009
(dp1010
S'speed'
p1011
S'19200'
p1012
sS'maximum_size'
p1013
S'14336'
p1014
sS'protocol'
p1015
S'arduino'
p1016
ssS'name'
p1017
S'Arduino Pro or Pro Mini (3.3V, 8 MHz) w/ ATmega168'
p1018
sS'build'
p1019
(dp1020
S'core'
p1021
S'arduino'
p1022
sS'mcu'
p1023
S'atmega168'
p1024
sS'f_cpu'
p1025
S'8000000L'
p1026
sS'variant'
p1027
S'standard'
p1028
ssaa(lp1029
S'atmega168'
p1030
a(dp1031
S'bootloader'
p1032
(dp1033
S'extended_fuses'
p1034
S'0x00'
p1035
sS'high_fuses'
p1036
S'0xdd'
p1037
sS'low_fuses'
p1038
S'0xff'
p1039
sS'lock_bits'
p1040
S'0x0F'
p1041
sS'file'
p1042
S'ATmegaBOOT_168_ng.hex'
p1043
sS'path'
p1044
S'atmega'
p1045
sS'unlock_bits'
p1046
S'0x3F'
p1047
ssS'upload'
p1048
(dp1049
S'speed'
p1050
S'19200'
p1051
sS'maximum_size'
p1052
S'14336'
p1053
sS'protocol'
p1054
S'arduino'
p1055
ssS'name'
p1056
S'Arduino NG or older w/ ATmega168'
p1057
sS'build'
p1058
(dp1059
S'core'
p1060
S'arduino'
p1061
sS'mcu'
p1062
S'atmega168'
p1063
sS'f_cpu'
p1064
S'16000000L'
p1065
sS'variant'
p1066
S'standard'
p1067
ssaa(lp1068
S'atmega8'
p1069
a(dp1070
S'bootloader'
p1071
(dp1072
S'high_fuses'
p1073
S'0xca'
p1074
sS'low_fuses'
p1075
S'0xdf'
p1076
sS'lock_bits'
p1077
S'0x0F'
p1078
sS'file'
p1079
S'ATmegaBOOT-prod-firmware-2009-11-07.hex'
p1080
sS'path'
p1081
S'atmega8'
p1082
sS'unlock_bits'
p1083
S'0x3F'
p1084
ssS'upload'
p1085
(dp1086
S'speed'
p1087
S'19200'
p1088
sS'maximum_size'
p1089
S'7168'
p1090
sS'protocol'
p1091
S'arduino'
p1092
ssS'name'
p1093
S'Arduino NG or older w/ ATmega8'
p1094
sS'build'
p1095
(dp1096
S'core'
p1097
S'arduino'
p1098
sS'mcu'
p1099
S'atmega8'
p1100
sS'f_cpu'
p1101
S'16000000L'
p1102
sS'variant'
p1103
S'standard'
p1104
ssaatp1105
Rp1106
(dp1107
S'default'
p1108
S'uno'
p1109
sbtp1110
a(S'cxx'
p1111
S'/Applications/Arduino.app/Contents/Resources/Java/hardware/tools/avr/bin/avr-g++'
p1112
tp1113
a.