MPASM  5.48                          MAIN.ASM   7-2-2013  22:00:30         PAGE  1


LOC  OBJECT CODE     LINE SOURCE TEXT
  VALUE

                      00001 ; +-----------------------------------------------------------------------------------------------------
                            ------------------------+
                      00002 ; | Gestion de 24 servos avec un PIC18F452                                                              
                                                                                                                            
                      00003 ; | Copyright (C) 2012 Charles RINCHEVAL (contact@digitalspirit.org)                                    
                                                                                                            |
                      00004 ; | Ce programme est libre, vous pouvez le redistribuer et/ou le modifier selon les termes de la Licence
                             Publique Générale GNU  |
                      00005 ; | publiée par la Free Software Foundation (version 2 ou bien toute autre version ultérieure choisie pa
                            r vous).                                |
                      00006 ; | Ce programme est distribué car potentiellement utile, mais SANS AUCUNE GARANTIE, ni explicite ni imp
                            licite,                                 |
                      00007 ; | y compris les garanties de commercialisation ou d'adaptation dans un but spécifique.                
                                                                                            |
                      00008 ; | Reportez-vous à la Licence Publique Générale GNU pour plus de détails.                              
                                                                                                            |
                      00009 ; | Vous devez avoir reçu une copie de la Licence Publique Générale GNU en même temps que ce programme ;
                                                                            |
                      00010 ; | si ce n'est pas le cas,                                                                             
                                                                                                                            
                      00011 ; | écrivez à la Free Software Foundation, Inc., 59 Temple Place, Suite 330, Boston, MA 02111-1307, État
                            s-Unis.                                 |
                      00012 ; +-----------------------------------------------------------------------------------------------------
                            ------------------------+
                      00013 ; 2004-11-19 : Lorsque la consigne est 0, le port reste à 1
                      00014 ; 2005-12-03 : Version finale débugguée en test sur Bleuette
                      00015 
                      00016         title           "Gestion de 24 servos !"
                      00017         processor       18F452
                      00018 
                      00019         #include                "p18F452.inc"
                      00001         LIST
                      00002 
                      00003 ;==========================================================================
                      00004 ;  MPASM PIC18F452 processor include
                      00005 ; 
                      00006 ;  (c) Copyright 1999-2012 Microchip Technology, All rights reserved
                      00007 ;==========================================================================
                      00008 
                      01254         LIST
                      00020         #include                "macro.inc"
                      00001 ; +-----------------------------------------------------------------------------------------------------
                            ------------------------+
                      00002 ; | Gestion de 24 servos avec un PIC18F452                                                              
                                                                                                                            
                      00003 ; | Copyright (C) 2012 Charles RINCHEVAL (contact@digitalspirit.org)                                    
                                                                                                            |
                      00004 ; | Ce programme est libre, vous pouvez le redistribuer et/ou le modifier selon les termes de la Licence
                             Publique Générale GNU  |
                      00005 ; | publiée par la Free Software Foundation (version 2 ou bien toute autre version ultérieure choisie pa
                            r vous).                                |
                      00006 ; | Ce programme est distribué car potentiellement utile, mais SANS AUCUNE GARANTIE, ni explicite ni imp
                            licite,                                 |
MPASM  5.48                          MAIN.ASM   7-2-2013  22:00:30         PAGE  2
Gestion de 24 servos !

LOC  OBJECT CODE     LINE SOURCE TEXT
  VALUE

                      00007 ; | y compris les garanties de commercialisation ou d'adaptation dans un but spécifique.                
                                                                                            |
                      00008 ; | Reportez-vous à la Licence Publique Générale GNU pour plus de détails.                              
                                                                                                            |
                      00009 ; | Vous devez avoir reçu une copie de la Licence Publique Générale GNU en même temps que ce programme ;
                                                                            |
                      00010 ; | si ce n'est pas le cas,                                                                             
                                                                                                                            
                      00011 ; | écrivez à la Free Software Foundation, Inc., 59 Temple Place, Suite 330, Boston, MA 02111-1307, État
                            s-Unis.                                 |
                      00012 ; +-----------------------------------------------------------------------------------------------------
                            ------------------------+
                      00013 ; Les macros !
                      00014 
                      00015 ;       NOLIST  ; Turn Off Listing File Output !
                      00016 
                      00017 ; Move Literal to F
                      00018 MOVLF   MACRO   literal, dest
                      00019                 movlw   literal
                      00020                 movwf   dest
                      00021                 ENDM
                      00022 
                      00023 ; Pour le DEBUG
                      00024 DON             MACRO
                      00025 ;               bsf             LATC, 7
                      00026 ;               bsf             LATC, 6
                      00027                 bsf             LATC, 5
                      00028                 ENDM
                      00029 
                      00030 DOFF    MACRO
                      00031 ;               bcf             LATC, 7
                      00032 ;               bcf             LATC, 6
                      00033                 bcf             LATC, 5
                      00034                 ENDM
                      00035 
                      00036 
                      00037 ; Move Literal to F Banked
                      00038 MOVLFB  MACRO   literal, dest
                      00039                 movlw   literal
                      00040                 movwf   dest, BANKED
                      00041                 ENDM
                      00042 
                      00043 ; Envoie un caractère sur le port série
                      00044 SEND    MACRO   char
                      00045                 movlw   char
                      00046                 movwf   TXREG
                      00047                 btfss   PIR1, TXIF
                      00048                 goto    $ - 2
                      00049                 ENDM
                      00050 
                      00051 ;       LIST
                      00021 
                      00022 ; Program Configuration Registers
MPASM  5.48                          MAIN.ASM   7-2-2013  22:00:30         PAGE  3
Gestion de 24 servos !

LOC  OBJECT CODE     LINE SOURCE TEXT
  VALUE

Warning[230]: __CONFIG has been deprecated for PIC18 devices.  Use directive CONFIG.
300000 FEFF           00023         __CONFIG    _CONFIG1H, _HSPLL_OSC_1H    ; _OSCS_OFF_1H & _EC_OSC_1H & 
Warning[230]: __CONFIG has been deprecated for PIC18 devices.  Use directive CONFIG.
                      00024         __CONFIG    _CONFIG2L, _BOR_OFF_2L & _PWRT_OFF_2L
Warning[230]: __CONFIG has been deprecated for PIC18 devices.  Use directive CONFIG.
300002 FEFD           00025         __CONFIG    _CONFIG2H, _WDT_OFF_2H
                      00026 ;       __CONFIG    _CONFIG3H, _CCP2MX_OFF_3H
Warning[230]: __CONFIG has been deprecated for PIC18 devices.  Use directive CONFIG.
300006 FF7A           00027         __CONFIG    _CONFIG4L, _STVR_OFF_4L & _LVP_OFF_4L & _DEBUG_ON_4L
Warning[230]: __CONFIG has been deprecated for PIC18 devices.  Use directive CONFIG.
300008 C0FF           00028         __CONFIG    _CONFIG5L, _CP0_OFF_5L & _CP1_OFF_5L & _CP2_OFF_5L & _CP3_OFF_5L 
                      00029 ;       __CONFIG    _CONFIG5H, _CPB_OFF_5H & _CPD_OFF_5H
Warning[230]: __CONFIG has been deprecated for PIC18 devices.  Use directive CONFIG.
30000A E0FF           00030         __CONFIG    _CONFIG6L, _WRT0_OFF_6L & _WRT1_OFF_6L & _WRT2_OFF_6L & _WRT3_OFF_6L 
                      00031 ;       __CONFIG    _CONFIG6H, _WRTC_OFF_6H & _WRTB_OFF_6H & _WRTD_OFF_6H
Warning[230]: __CONFIG has been deprecated for PIC18 devices.  Use directive CONFIG.
30000C 40FF           00032         __CONFIG    _CONFIG7L, _EBTR0_OFF_7L & _EBTR1_OFF_7L & _EBTR2_OFF_7L & _EBTR3_OFF_7L
                      00033 ;       __CONFIG    _CONFIG7H, _EBTRB_OFF_7H
                      00034 
                      00035 
                      00036 ; +--------------------------+
                      00037 ; | Définition de constantes |
                      00038 ; +--------------------------+
                      00039 
                      00040 #DEFINE         NBR_SERVO       .24
                      00041 
                      00042 #DEFINE         PHASE_1         0x00
                      00043 #DEFINE         PHASE_2         0x01
                      00044 #DEFINE         PHASE_3         0x02
                      00045 #DEFINE         PHASE_4         0x03
                      00046 
                      00047 #DEFINE         HEADER          0xFF    ; 0xAA (0b10101010)
                      00048 
                      00049 #DEFINE         COMMAND_INIT    'I'
                      00050 #DEFINE         COMMAND_PAUSE   'P'
                      00051 #DEFINE         COMMAND_RESUME  'R'
                      00052 #DEFINE         COMMAND_CLEAR   'C'
                      00053 #DEFINE         COMMAND_SET     'S'
                      00054 #DEFINE         COMMAND_READAN0 '0'
                      00055 #DEFINE         COMMAND_READAN1 '1'
                      00056 #DEFINE         COMMAND_READAN2 '2'
                      00057 #DEFINE         COMMAND_READAN3 '3'
                      00058 #DEFINE         COMMAND_READAN4 '4'
                      00059 #DEFINE         COMMAND_READAN5 '5'
                      00060 
                      00061         CBLOCK  0x00    ; zone access ram de la banque 0
  00000000            00062                 servo_cons0     : 1
  00000001            00063                 servo_cons1     : 1
  00000002            00064                 servo_cons2     : 1
  00000003            00065                 servo_cons3     : 1
  00000004            00066                 servo_cons4     : 1
  00000005            00067                 servo_cons5     : 1
  00000006            00068                 servo_cons6     : 1
MPASM  5.48                          MAIN.ASM   7-2-2013  22:00:30         PAGE  4
Gestion de 24 servos !

LOC  OBJECT CODE     LINE SOURCE TEXT
  VALUE

  00000007            00069                 servo_cons7     : 1
  00000008            00070                 servo_cons8     : 1
  00000009            00071                 servo_cons9             : 1
  0000000A            00072                 servo_cons10    : 1
  0000000B            00073                 servo_cons11    : 1
  0000000C            00074                 servo_cons12    : 1
  0000000D            00075                 servo_cons13    : 1
  0000000E            00076                 servo_cons14    : 1
  0000000F            00077                 servo_cons15    : 1
  00000010            00078                 servo_cons16    : 1
  00000011            00079                 servo_cons17    : 1
  00000012            00080                 servo_cons18    : 1
  00000013            00081                 servo_cons19    : 1
  00000014            00082                 servo_cons20    : 1
  00000015            00083                 servo_cons21    : 1
  00000016            00084                 servo_cons22    : 1
  00000017            00085                 servo_cons23    : 1
                      00086 
  00000018            00087                 servo_sorted    : 24
                      00088 
  0000003C            00089                 cmpt_pass               : 1             ; Le compteur de passage
  0000003D            00090                 current_cons    : 1             ; La consigne courante
  0000003E            00091                 current_servo   : 1     ; Offset du servo courant
  0000003F            00092                 current_qnt             : 1             ; Quantité de servo courante
                      00093 
  00000040            00094                 total_qnt               : 1             ; Quantité totale de servos qui y sont passés
  00000041            00095                 cons_prec               : 1             ; Valeur de la consigne précédente
                      00096 
  00000042            00097                 buf_PORTA               : 1             ; Les buffers des ports
  00000043            00098                 buf_PORTB               : 1
  00000044            00099                 buf_PORTC               : 1
  00000045            00100                 buf_PORTD               : 1
  00000046            00101                 buf_PORTE               : 1
                      00102 
  00000047            00103                 phase                   : 1             ; La phase courante
  00000048            00104                 phase_cmpt              : 1             ; Phase de comptage
                      00105 
                      00106 
                      00107                 ; Variables spécifiques pour le tri
  00000049            00108                 var_min                 : 1
  0000004A            00109                 var_max                 : 1
                      00110 
  0000004B            00111                 mask                    : 1
  0000004C            00112                 mask_tmp                : 1
                      00113 
  0000004D            00114                 buf_tab0                : 1
  0000004E            00115                 buf_tab1                : 1
  0000004F            00116                 buf_tab2                : 1
                      00117 
  00000050            00118                 cmpt_bcl                : 1
                      00119 
  00000051            00120                 tmp_FSR0L               : 1
                      00121 ;               tmp_FSR0H               : 1
MPASM  5.48                          MAIN.ASM   7-2-2013  22:00:30         PAGE  5
Gestion de 24 servos !

LOC  OBJECT CODE     LINE SOURCE TEXT
  VALUE

                      00122 
  00000052            00123                 tmp_FSR1L               : 1
  00000053            00124                 tmp_FSR1H               : 1
                      00125 
  00000054            00126                 tmp_FSR2L               : 1
                      00127 ;               tmp_FSR2H               : 1
                      00128 
  00000055            00129                 cmpt                    : 1
  00000056            00130                 bcl                             : 1
                      00131 
                      00132                 ; Masque de bit
                      00133                 ; Fini les mask de bit
                      00134         ;mask_recept0   : 1             ; Octets contenant les masques de bits
                      00135                 ;mask_recept1   : 1
                      00136                 ;mask_recept2   : 1
                      00137 
                      00138                 ;pos_recept             : 1             ; La position voulue
                      00139                 ;pos_recept1            : 1
                      00140                 ;pos_recept2            : 1
                      00141 
  00000057            00142                 received_counter : 1
  00000058            00143         pos_0   : 1
  00000059            00144         pos_1   : 1
  0000005A            00145         pos_2   : 1
  0000005B            00146         pos_3   : 1
  0000005C            00147         pos_4   : 1
                      00148 
  0000005D            00149         pos_5   : 1
  0000005E            00150         pos_6   : 1
  0000005F            00151         pos_7   : 1
  00000060            00152         pos_8   : 1
  00000061            00153         pos_9   : 1
                      00154 
  00000062            00155         pos_10   : 1
  00000063            00156         pos_11   : 1
  00000064            00157         pos_12   : 1
  00000065            00158         pos_13   : 1
                      00159 
  00000066            00160                 reception_control : 1
  00000067            00161                 pause_mode : 1
                      00162 
                      00163 ;               cmpt_word               : 1             ; Compteur d'octets
                      00164 ;               cmpt_maj                : 1
                      00165 
  00000068            00166                 wreg_backup : 1
                      00167 
  00000069            00168                 csaving_IN_FSR2L        : 1             ; Context saving
  0000006A            00169                 csaving_IN_FSR2H        : 1
                      00170 
  0000006B            00171                 csaving_OUT_FSR2L       : 1             ; Context saving
  0000006C            00172                 csaving_OUT_FSR2H       : 1
                      00173         ENDC
                      00174 
MPASM  5.48                          MAIN.ASM   7-2-2013  22:00:30         PAGE  6
Gestion de 24 servos !

LOC  OBJECT CODE     LINE SOURCE TEXT
  VALUE

                      00175         CBLOCK 0x100    ; Zone Bank 1
  00000100            00176                 servo_nbr00     : 1
  00000101            00177                 servo_nbr01     : 1
  00000102            00178                 servo_nbr02     : 1
  00000103            00179                 servo_nbr03     : 1
  00000104            00180                 servo_nbr04     : 1
  00000105            00181                 servo_nbr05     : 1
  00000106            00182                 servo_nbr06     : 1
  00000107            00183                 servo_nbr07     : 1
  00000108            00184                 servo_nbr08     : 1
  00000109            00185                 servo_nbr09     : 1
  0000010A            00186                 servo_nbr10     : 1
  0000010B            00187                 servo_nbr11     : 1
  0000010C            00188                 servo_nbr12     : 1
  0000010D            00189                 servo_nbr13     : 1
  0000010E            00190                 servo_nbr14     : 1
  0000010F            00191                 servo_nbr15     : 1
  00000110            00192                 servo_nbr16     : 1
  00000111            00193                 servo_nbr17     : 1
  00000112            00194                 servo_nbr18     : 1
  00000113            00195                 servo_nbr19     : 1
  00000114            00196                 servo_nbr20     : 1
  00000115            00197                 servo_nbr21     : 1
  00000116            00198                 servo_nbr22     : 1
  00000117            00199                 servo_nbr23     : 1
                      00200 
  00000118            00201                 servo_val00 : 1 ; 24 * 3 zones contenants les états des ports à chaque itération
  00000119            00202                 servo_val01 : 1
  0000011A            00203                 servo_val02 : 1
  0000011B            00204                 servo_val03 : 1
  0000011C            00205                 servo_val04 : 1
  0000011D            00206                 servo_val05 : 1
  0000011E            00207                 servo_val06 : 1
  0000011F            00208                 servo_val07 : 1
  00000120            00209                 servo_val08 : 1
  00000121            00210                 servo_val09 : 1
  00000122            00211                 servo_val10 : 1
  00000123            00212                 servo_val11 : 1
  00000124            00213                 servo_val12 : 1
  00000125            00214                 servo_val13 : 1
  00000126            00215                 servo_val14 : 1
  00000127            00216                 servo_val15 : 1
  00000128            00217                 servo_val16 : 1
  00000129            00218                 servo_val17 : 1
  0000012A            00219                 servo_val18 : 1
  0000012B            00220                 servo_val19 : 1
  0000012C            00221                 servo_val20 : 1
  0000012D            00222                 servo_val21 : 1
  0000012E            00223                 servo_val22 : 1
  0000012F            00224                 servo_val23 : 1
  00000130            00225                 servo_val24 : 1
  00000131            00226                 servo_val25 : 1
  00000132            00227                 servo_val26 : 1
MPASM  5.48                          MAIN.ASM   7-2-2013  22:00:30         PAGE  7
Gestion de 24 servos !

LOC  OBJECT CODE     LINE SOURCE TEXT
  VALUE

  00000133            00228                 servo_val27 : 1
  00000134            00229                 servo_val28 : 1
  00000135            00230                 servo_val29 : 1
  00000136            00231                 servo_val30 : 1
  00000137            00232                 servo_val31 : 1
  00000138            00233                 servo_val32 : 1
  00000139            00234                 servo_val33 : 1
  0000013A            00235                 servo_val34 : 1
  0000013B            00236                 servo_val35 : 1
  0000013C            00237                 servo_val36 : 1
  0000013D            00238                 servo_val37 : 1
  0000013E            00239                 servo_val38 : 1
  0000013F            00240                 servo_val39 : 1
  00000140            00241                 servo_val40 : 1
  00000141            00242                 servo_val41 : 1
  00000142            00243                 servo_val42 : 1
  00000143            00244                 servo_val43 : 1
  00000144            00245                 servo_val44 : 1
  00000145            00246                 servo_val45 : 1
  00000146            00247                 servo_val46 : 1
  00000147            00248                 servo_val47 : 1
  00000148            00249                 servo_val48 : 1
  00000149            00250                 servo_val49 : 1
  0000014A            00251                 servo_val50 : 1
  0000014B            00252                 servo_val51 : 1
  0000014C            00253                 servo_val52 : 1
  0000014D            00254                 servo_val53 : 1
  0000014E            00255                 servo_val54 : 1
  0000014F            00256                 servo_val55 : 1
  00000150            00257                 servo_val56 : 1
  00000151            00258                 servo_val57 : 1
  00000152            00259                 servo_val58 : 1
  00000153            00260                 servo_val59 : 1
  00000154            00261                 servo_val60 : 1
  00000155            00262                 servo_val61 : 1
  00000156            00263                 servo_val62 : 1
  00000157            00264                 servo_val63 : 1
  00000158            00265                 servo_val64 : 1
  00000159            00266                 servo_val65 : 1
  0000015A            00267                 servo_val66 : 1
  0000015B            00268                 servo_val67 : 1
  0000015C            00269                 servo_val68 : 1
  0000015D            00270                 servo_val69 : 1
  0000015E            00271                 servo_val70 : 1
  0000015F            00272                 servo_val71 : 1
                      00273         ENDC
                      00274 
                      00275         ; Reset Vector
000000                00276         org             0
000000 0000           00277         nop
000002 D19E           00278         bra             _init
                      00279 
                      00280 
MPASM  5.48                          MAIN.ASM   7-2-2013  22:00:30         PAGE  8
Gestion de 24 servos !

LOC  OBJECT CODE     LINE SOURCE TEXT
  VALUE

                      00281         ; High Priority Vector
000008                00282         org             0x08
000008 0000           00283         nop
00000A D008           00284         bra             inth
                      00285 
                      00286         ; Low Priority Vector
000018                00287         org             0x18
000018 0000           00288         nop
00001A D00D           00289         bra             intl
                      00290 
                      00291 
                      00292 
                      00293 ; High Priority Vector
00001C                00294 inth
                      00295         ; Pause ?
00001C 0E00           00296         movlw   0
00001E 6267           00297         cpfseq  pause_mode
000020 EF9D F001      00298         goto    inth_end
                      00299 
                      00300         ; "Switch" des interruptions
000024 B4F2           00301         btfsc   INTCON, TMR0IF
000026 EF25 F001      00302         goto    _inth_Timer
                      00303 
00002A 90CD           00304         bcf             T1CON, TMR1ON
00002C 8ED5           00305         bsf             T0CON, TMR0ON
00002E B09E           00306         btfsc   PIR1, TMR1IF
000030 EF25 F001      00307         goto    _inth_Timer
                      00308 
000034 0011           00309         retfie  FAST
                      00310 
                      00311 
                      00312 ; Low Priority Vector
000036                00313 intl
000036 BA9E           00314         btfsc   PIR1, RCIF
000038 EF1F F000      00315         goto    _intl_usart
00003C 0010           00316         retfie
                      00317 
                      00318 
                      00319 ; Interruption venant de l'USART
00003E                00320 _intl_usart
                      00321         ; Backup WREG
00003E 6E68           00322         movwf   wreg_backup
                      00323 
                      00324 ; 0: Reception de l'entete
000040 0E00           00325         movlw   0
000042 6257           00326         cpfseq  received_counter
000044 EF2A F000      00327         goto    _intl_usart_received_test_command
                      00328 
                      00329         ; Test si le premier est bien egal a 255
000048 0EFF           00330         movlw   HEADER
00004A 62AE           00331         cpfseq  RCREG
00004C EFAC F000      00332         goto    _int1_usart_clear
000050 EF21 F001      00333         goto    _intl_usart_end
MPASM  5.48                          MAIN.ASM   7-2-2013  22:00:30         PAGE  9
Gestion de 24 servos !

LOC  OBJECT CODE     LINE SOURCE TEXT
  VALUE

                      00334 
                      00335 ; 1: Command
Warning[208]: Label truncated at 32 characters. (_intl_usart_received_test_command)
000054                00336 _intl_usart_received_test_command
000054 0E01           00337         movlw   .1
000056 6257           00338         cpfseq  received_counter
000058 EFAF F000      00339         goto    _intl_usart_received_test_pos0
                      00340 
                      00341 ; Test for set command
00005C                00342 _int1_usart_received_test_set
00005C 0E53           00343         movlw   COMMAND_SET
00005E 62AE           00344         cpfseq  RCREG
000060 EF34 F000      00345         goto    _int1_usart_received_test_init
000064 EF21 F001      00346         goto    _intl_usart_end
                      00347 
                      00348 ; Test for init command
000068                00349 _int1_usart_received_test_init
000068 0E49           00350         movlw   COMMAND_INIT
00006A 62AE           00351         cpfseq  RCREG
00006C EF3E F000      00352         goto    _int1_usart_received_test_pause
                      00353         ; Set all value to 0
000070 0E00           00354         movlw   0
000072 EC0B F003      00355         call    setValue
000076 8AF2           00356         bsf     INTCON, TMR0IE
000078 EFA0 F000      00357         goto    _int1_usart_received_send_ack
                      00358 
                      00359 ; Test for pause command
00007C                00360 _int1_usart_received_test_pause
00007C 0E50           00361         movlw   COMMAND_PAUSE
00007E 62AE           00362         cpfseq  RCREG
000080 EF47 F000      00363         goto    _int1_usart_received_test_resume
                      00364 
000084 6967           00365         setf    pause_mode, 1
000086 EC24 F003      00366         call    clearAllOut
00008A EFA0 F000      00367         goto    _int1_usart_received_send_ack
                      00368 
                      00369 ; Test for resume command
00008E                00370 _int1_usart_received_test_resume
00008E 0E52           00371         movlw   COMMAND_RESUME
000090 62AE           00372         cpfseq  RCREG
000092 EF4E F000      00373         goto    _int1_usart_received_test_ana0
                      00374 
000096 6A67           00375         clrf    pause_mode
000098 EFA0 F000      00376         goto    _int1_usart_received_send_ack
                      00377 
                      00378 ; Test for read analog 0 command
00009C                00379 _int1_usart_received_test_ana0
00009C 0E30           00380         movlw   COMMAND_READAN0
00009E 62AE           00381         cpfseq  RCREG
0000A0 EF59 F000      00382         goto    _int1_usart_received_test_ana1
                      00383 
                      00384         ; TODO!!
                      00385         SEND '0'
MPASM  5.48                          MAIN.ASM   7-2-2013  22:00:30         PAGE 10
Gestion de 24 servos !

LOC  OBJECT CODE     LINE SOURCE TEXT
  VALUE

0000A4 0E30               M                 movlw   '0'
0000A6 6EAD               M                 movwf   TXREG
0000A8 A89E               M                 btfss   PIR1, TXIF
0000AA EF54 F000          M                 goto    $ - 2
                      00386 
0000AE EFA0 F000      00387         goto    _int1_usart_received_send_ack
                      00388 
                      00389 ; Test for read analog 1 command
0000B2                00390 _int1_usart_received_test_ana1
0000B2 0E31           00391         movlw   COMMAND_READAN1
0000B4 62AE           00392         cpfseq  RCREG
0000B6 EF64 F000      00393         goto    _int1_usart_received_test_ana2
                      00394 
                      00395         ; TODO!!
                      00396         SEND '1'
0000BA 0E31               M                 movlw   '1'
0000BC 6EAD               M                 movwf   TXREG
0000BE A89E               M                 btfss   PIR1, TXIF
0000C0 EF5F F000          M                 goto    $ - 2
                      00397 
0000C4 EFA0 F000      00398         goto    _int1_usart_received_send_ack
                      00399 
                      00400 ; Test for read analog 2 command
0000C8                00401 _int1_usart_received_test_ana2
0000C8 0E32           00402         movlw   COMMAND_READAN2
0000CA 62AE           00403         cpfseq  RCREG
0000CC EF6F F000      00404         goto    _int1_usart_received_test_ana3
                      00405 
                      00406         ; TODO!!
                      00407         SEND '2'
0000D0 0E32               M                 movlw   '2'
0000D2 6EAD               M                 movwf   TXREG
0000D4 A89E               M                 btfss   PIR1, TXIF
0000D6 EF6A F000          M                 goto    $ - 2
                      00408 
0000DA EFA0 F000      00409         goto    _int1_usart_received_send_ack
                      00410 
                      00411 ; Test for read analog 3 command
0000DE                00412 _int1_usart_received_test_ana3
0000DE 0E33           00413         movlw   COMMAND_READAN3
0000E0 62AE           00414         cpfseq  RCREG
0000E2 EF7A F000      00415         goto    _int1_usart_received_test_ana4
                      00416 
                      00417         ; TODO!!
                      00418         SEND '3'
0000E6 0E33               M                 movlw   '3'
0000E8 6EAD               M                 movwf   TXREG
0000EA A89E               M                 btfss   PIR1, TXIF
0000EC EF75 F000          M                 goto    $ - 2
                      00419 
0000F0 EFA0 F000      00420         goto    _int1_usart_received_send_ack
                      00421 
                      00422 ; Test for read analog 4 command
MPASM  5.48                          MAIN.ASM   7-2-2013  22:00:30         PAGE 11
Gestion de 24 servos !

LOC  OBJECT CODE     LINE SOURCE TEXT
  VALUE

0000F4                00423 _int1_usart_received_test_ana4
0000F4 0E34           00424         movlw   COMMAND_READAN4
0000F6 62AE           00425         cpfseq  RCREG
0000F8 EF85 F000      00426         goto    _int1_usart_received_test_ana5
                      00427 
                      00428         ; TODO!!
                      00429         SEND '4'
0000FC 0E34               M                 movlw   '4'
0000FE 6EAD               M                 movwf   TXREG
000100 A89E               M                 btfss   PIR1, TXIF
000102 EF80 F000          M                 goto    $ - 2
                      00430 
000106 EFA0 F000      00431         goto    _int1_usart_received_send_ack
                      00432 
                      00433 ; Test for read analog 5 command
00010A                00434 _int1_usart_received_test_ana5
00010A 0E35           00435         movlw   COMMAND_READAN5
00010C 62AE           00436         cpfseq  RCREG
00010E EF90 F000      00437         goto    _int1_usart_received_test_clear
                      00438 
                      00439         ; TODO!!
                      00440         SEND '5'
000112 0E35               M                 movlw   '5'
000114 6EAD               M                 movwf   TXREG
000116 A89E               M                 btfss   PIR1, TXIF
000118 EF8B F000          M                 goto    $ - 2
                      00441 
00011C EFA0 F000      00442         goto    _int1_usart_received_send_ack
                      00443 
                      00444 ; Test for clear command
000120                00445 _int1_usart_received_test_clear
000120 0E43           00446         movlw   COMMAND_CLEAR
000122 62AE           00447         cpfseq  RCREG
000124 EFA7 F000      00448         goto    _intl_usart_unknow_command
                      00449 
000128 6A67           00450         clrf    pause_mode
                      00451         ; Set all value to 0
00012A 0E00           00452         movlw   0
00012C EC0B F003      00453         call    setValue
000130 EFA0 F000      00454         goto    _int1_usart_received_send_ack
                      00455 
                      00456         ; Si command n'est pas egal a 1, on clear et on quitte
000134 0E01           00457         movlw .1
000136 62AE           00458         cpfseq RCREG
000138 EFAC F000      00459         goto _int1_usart_clear
00013C EF21 F001      00460         goto _intl_usart_end
                      00461 
000140                00462 _int1_usart_received_send_ack
                      00463         SEND 'O'
000140 0E4F               M                 movlw   'O'
000142 6EAD               M                 movwf   TXREG
000144 A89E               M                 btfss   PIR1, TXIF
000146 EFA2 F000          M                 goto    $ - 2
MPASM  5.48                          MAIN.ASM   7-2-2013  22:00:30         PAGE 12
Gestion de 24 servos !

LOC  OBJECT CODE     LINE SOURCE TEXT
  VALUE

00014A EFAC F000      00464         goto _int1_usart_clear
                      00465 
00014E                00466 _intl_usart_unknow_command
                      00467         SEND 'N'
00014E 0E4E               M                 movlw   'N'
000150 6EAD               M                 movwf   TXREG
000152 A89E               M                 btfss   PIR1, TXIF
000154 EFA9 F000          M                 goto    $ - 2
000158                00468 _int1_usart_clear
000158 6A57           00469         clrf received_counter
00015A EF22 F001      00470         goto _intl_usart_exit
                      00471 
                      00472 ; 2: Position 0
00015E                00473 _intl_usart_received_test_pos0
00015E 0E02           00474         movlw .2
000160 6257           00475         cpfseq received_counter
000162 EFB7 F000      00476         goto _intl_usart_received_test_pos1
000166 50AE           00477         movf RCREG, W
000168 6E58           00478         movwf pos_0
00016A EF21 F001      00479         goto _intl_usart_end
                      00480 
                      00481 ; 3: Position 1
00016E                00482 _intl_usart_received_test_pos1
00016E 0E03           00483         movlw .3
000170 6257           00484         cpfseq received_counter
000172 EFBF F000      00485         goto _intl_usart_received_test_pos2
000176 50AE           00486         movf RCREG, W
000178 6E59           00487         movwf pos_1
00017A EF21 F001      00488         goto _intl_usart_end
                      00489 
                      00490 ; 4: Position 2
00017E                00491 _intl_usart_received_test_pos2
00017E 0E04           00492         movlw .4
000180 6257           00493         cpfseq received_counter
000182 EFC7 F000      00494         goto _intl_usart_received_test_pos3
000186 50AE           00495         movf RCREG, W
000188 6E5A           00496         movwf pos_2
00018A EF21 F001      00497         goto _intl_usart_end
                      00498 
                      00499 ; 5: Position 3
00018E                00500 _intl_usart_received_test_pos3
00018E 0E05           00501         movlw .5
000190 6257           00502         cpfseq received_counter
000192 EFCF F000      00503         goto _intl_usart_received_test_pos4
000196 50AE           00504         movf RCREG, W
000198 6E5B           00505         movwf pos_3
00019A EF21 F001      00506         goto _intl_usart_end
                      00507 
                      00508 ; 6: Position 4
00019E                00509 _intl_usart_received_test_pos4
00019E 0E06           00510         movlw 6
0001A0 6257           00511         cpfseq received_counter
0001A2 EFD7 F000      00512         goto _intl_usart_received_test_pos5
MPASM  5.48                          MAIN.ASM   7-2-2013  22:00:30         PAGE 13
Gestion de 24 servos !

LOC  OBJECT CODE     LINE SOURCE TEXT
  VALUE

0001A6 50AE           00513         movf RCREG, W
0001A8 6E5C           00514         movwf pos_4
0001AA EF21 F001      00515         goto _intl_usart_end
                      00516 
                      00517 ; 7: Position 5
0001AE                00518 _intl_usart_received_test_pos5
0001AE 0E07           00519         movlw .7
0001B0 6257           00520         cpfseq received_counter
0001B2 EFDF F000      00521         goto _intl_usart_received_test_pos6
0001B6 50AE           00522         movf RCREG, W
0001B8 6E5D           00523         movwf pos_5
0001BA EF21 F001      00524         goto _intl_usart_end
                      00525 
                      00526 ; 8: Position 6
0001BE                00527 _intl_usart_received_test_pos6
0001BE 0E08           00528         movlw .8
0001C0 6257           00529         cpfseq received_counter
0001C2 EFE7 F000      00530         goto _intl_usart_received_test_pos7
0001C6 50AE           00531         movf RCREG, W
0001C8 6E5E           00532         movwf pos_6
0001CA EF21 F001      00533         goto _intl_usart_end
                      00534 
                      00535 ; 9: Position 7
0001CE                00536 _intl_usart_received_test_pos7
0001CE 0E09           00537         movlw .9
0001D0 6257           00538         cpfseq received_counter
0001D2 EFEF F000      00539         goto _intl_usart_received_test_pos8
0001D6 50AE           00540         movf RCREG, W
0001D8 6E5F           00541         movwf pos_7
0001DA EF21 F001      00542         goto _intl_usart_end
                      00543 
                      00544 ; 10: Position 8
0001DE                00545 _intl_usart_received_test_pos8
0001DE 0E0A           00546         movlw .10
0001E0 6257           00547         cpfseq received_counter
0001E2 EFF7 F000      00548         goto _intl_usart_received_test_pos9
0001E6 50AE           00549         movf RCREG, W
0001E8 6E60           00550         movwf pos_8
0001EA EF21 F001      00551         goto _intl_usart_end
                      00552 
                      00553 ; 11: Position 9
0001EE                00554 _intl_usart_received_test_pos9
0001EE 0E0B           00555         movlw .11
0001F0 6257           00556         cpfseq received_counter
0001F2 EFFF F000      00557         goto _intl_usart_received_test_pos10
0001F6 50AE           00558         movf RCREG, W
0001F8 6E61           00559         movwf pos_9
0001FA EF21 F001      00560         goto _intl_usart_end
                      00561 
                      00562 ; 12: Position 10
0001FE                00563 _intl_usart_received_test_pos10
0001FE 0E0C           00564         movlw .12
000200 6257           00565         cpfseq received_counter
MPASM  5.48                          MAIN.ASM   7-2-2013  22:00:30         PAGE 14
Gestion de 24 servos !

LOC  OBJECT CODE     LINE SOURCE TEXT
  VALUE

000202 EF07 F001      00566         goto _intl_usart_received_test_pos11
000206 50AE           00567         movf RCREG, W
000208 6E62           00568         movwf pos_10
00020A EF21 F001      00569         goto _intl_usart_end
                      00570 
                      00571 ; 13: Position 11
00020E                00572 _intl_usart_received_test_pos11
00020E 0E0D           00573         movlw .13
000210 6257           00574         cpfseq received_counter
000212 EF0F F001      00575         goto _intl_usart_received_test_pos12
000216 50AE           00576         movf RCREG, W
000218 6E63           00577         movwf pos_11
00021A EF21 F001      00578         goto _intl_usart_end
                      00579 
                      00580 ; 14: Position 12
00021E                00581 _intl_usart_received_test_pos12
00021E 0E0E           00582         movlw .14
000220 6257           00583         cpfseq received_counter
000222 EF17 F001      00584         goto _intl_usart_received_test_pos13
000226 50AE           00585         movf RCREG, W
000228 6E64           00586         movwf pos_12
00022A EF21 F001      00587         goto _intl_usart_end
                      00588 
                      00589 ; 15: Position 13
00022E                00590 _intl_usart_received_test_pos13
00022E 0E0F           00591         movlw .15
000230 6257           00592         cpfseq received_counter
000232 EF1F F001      00593         goto _intl_usart_received_test_control
000236 50AE           00594         movf RCREG, W
000238 6E65           00595         movwf pos_13
00023A EF21 F001      00596         goto _intl_usart_end
                      00597 
                      00598 ; 17: Control byte
Warning[208]: Label truncated at 32 characters. (_intl_usart_received_test_control)
00023E                00599 _intl_usart_received_test_control
00023E 50AE           00600         movf RCREG, W
000240 6E66           00601         movwf reception_control
                      00602 
000242                00603 _intl_usart_end
000242 2A57           00604         incf received_counter
                      00605 
000244                00606 _intl_usart_exit
                      00607         ; Restore WREG
000244 0E68           00608         movlw   wreg_backup
000246 9A9E           00609         bcf             PIR1, RCIF
000248 0010           00610         retfie
                      00611 
                      00612 
                      00613 
                      00614 
                      00615 ; Interruption du Timer
00024A                00616 _inth_Timer
                      00617 
MPASM  5.48                          MAIN.ASM   7-2-2013  22:00:30         PAGE 15
Gestion de 24 servos !

LOC  OBJECT CODE     LINE SOURCE TEXT
  VALUE

                      00618         ; Aiguillage vers la bonne phase
00024A B248           00619         btfsc   phase_cmpt, .1
00024C EF88 F001      00620         goto    phase3
                      00621 
                      00622 
                      00623 ; ###########
                      00624 ; # PHASE 1 #
                      00625 ; ###########
                      00626 
000250 ECAE F003      00627         call    sort
                      00628 
000254 0E48           00629         movlw   0x48                            ; Ajout hugo, le 10/02/2005
000256 6ECF           00630         movwf   TMR1H                           ; Pour être sûr que la période soit de 20ms
000258 0EA0           00631         movlw   0xA0
00025A 6ECE           00632         movwf   TMR1L
00025C 80CD           00633         bsf             T1CON, TMR1ON           ; Pour revenir dans 20ms
                      00634 
00025E EC28 F003      00635         call    setAllPort                      ; Allumage des ports !
                      00636 
                      00637 
                      00638         ; Tempo de 400us, oui, c'est dommage ...
                      00639         ; ... on pourrait se servir de ce temps pour autre chose ...
                      00640         ; ... il faut donc refaire la routine de tri !
000262 0EFF           00641         movlw   0xFF
000264 6E50           00642         movwf   cmpt_bcl
000266                00643 bcl_toto
000266 D000           00644         bra             $ + 2
000268 D000           00645         bra             $ + 2
00026A D000           00646         bra             $ + 2
00026C D000           00647         bra             $ + 2
00026E D000           00648         bra             $ + 2
000270 D000           00649         bra             $ + 2
000272 2E50           00650         decfsz  cmpt_bcl
000274 D7F8           00651         bra             bcl_toto
                      00652 
000276 D0             00653         fill(bra        $ + 2), 64      ; 64 -> Passage en repos à l'état bas
                      00654 
                      00655 
                      00656 ; ###########
                      00657 ; # PHASE 2 #
                      00658 ; ###########
                      00659         
0002DA EE00 F018      00660         lfsr    FSR0, servo_sorted      ; Pointeur de consignes
0002DE EE11 F018      00661         lfsr    FSR1, servo_val00       ; Pointeur des ports actifs
0002E2 EE21 F000      00662         lfsr    FSR2, servo_nbr00       ; Pointeur de la quantité courante
                      00663 
0002E6 6A40           00664         clrf    total_qnt
0002E8 6A41           00665         clrf    cons_prec
                      00666 
0002EA                00667 phase2
0002EA 50EF           00668         movf    INDF0, W
0002EC 6E3D           00669         movwf   current_cons            ; La consigne courante
                      00670 
MPASM  5.48                          MAIN.ASM   7-2-2013  22:00:30         PAGE 16
Gestion de 24 servos !

LOC  OBJECT CODE     LINE SOURCE TEXT
  VALUE

0002EE 5041           00671         movf    cons_prec, W
0002F0 5E3D           00672         subwf   current_cons, F         ; On ne compte que le décalage par rapport au précédent
                      00673 
0002F2 E019           00674         bz              phase4                          ; Consigne courante à 0 ?
                      00675 
0002F4 50EF           00676         movf    INDF0, W
0002F6 6E41           00677         movwf   cons_prec
                      00678 
0002F8 0E01           00679         movlw   .1
0002FA 6E3C           00680         movwf   cmpt_pass
                      00681 
                      00682 
0002FC 6848           00683         setf    phase_cmpt                      ; Phase de comptage
                      00684 
                      00685 
0002FE 0000           00686         nop                                                     ; Très important pour la précision !
000300 0000           00687         nop                                                     ; Ne pas toucher !!
                      00688 
000302 0000           00689         nop             ; Ajout pour passage en mode repos niveau haut
000304 0000           00690         nop             ; "
000306 0000           00691         nop             ; "
                      00692 
000308 0000           00693         nop
00030A 0000           00694         nop
00030C 0000           00695         nop
00030E 0000           00696         nop
                      00697 
                      00698 ; ###########
                      00699 ; # PHASE 3 #
                      00700 ; ###########
000310                00701 phase3
000310 0EFF           00702         movlw   0xFF
000312 6ED7           00703         movwf   TMR0H
                      00704 
000314 0EE1           00705         movlw   0xE1
                      00706 
000316 6ED6           00707         movwf   TMR0L
                      00708 
000318 0000           00709         nop
                      00710 
00031A 2A3C           00711         incf    cmpt_pass                       ; Incrémente le compteur
                      00712 
00031C 503D           00713         movf    current_cons, W
00031E 643C           00714         cpfsgt  cmpt_pass                       ; Si cmpt est supérieur à la consigne courante, on skip
000320 D00C           00715         bra             inth_end
                      00716 
000322 6A48           00717         clrf    phase_cmpt                      ; Sinon, on a fini de compter
                      00718 
                      00719 
                      00720 ; ###########
                      00721 ; # PHASE 4 #
                      00722 ; ###########
000324 0000           00723         nop
MPASM  5.48                          MAIN.ASM   7-2-2013  22:00:30         PAGE 17
Gestion de 24 servos !

LOC  OBJECT CODE     LINE SOURCE TEXT
  VALUE

000326                00724 phase4
000326 EC67 F003      00725         call    clrPort                         ; Extinction du ou des servos courants
                      00726 
00032A 50DE           00727         movf    POSTINC2, W                     ; Addition de la quantité courante ...
00032C 2640           00728         addwf   total_qnt, F            ; ... et de la quantité de servos déjà passés
                      00729 
00032E 2AE9           00730         incf    FSR0L
000330 0000           00731         nop
                      00732 
000332 0E17           00733         movlw   NBR_SERVO - 1
000334 6440           00734         cpfsgt  total_qnt                       ; Si le total de servo déjà passé est égal au nombre de 
                            servo, on skip !
000336 D7D9           00735         bra             phase2
                      00736 
                      00737 
                      00738 ; ###########
                      00739 ; # PHASE 5 #
                      00740 ; ###########
                      00741 
                      00742 ;       movlw   0x61                            ; Supprimé hugo, le 10/02/2005
                      00743 ;       movwf   TMR1H                           ; Pour être sûr que la période soit de 20ms
                      00744 ;       movlw   0xFF                            ; ... 0xFF pour 20ms pile poil !
                      00745 ;       movwf   TMR1L
                      00746 
000338 9ED5           00747         bcf             T0CON, TMR0ON
                      00748 ;       bsf             T1CON, TMR1ON           ; Supprimé hugo, le 10/02/2005
                      00749 
                      00750 ; On sort de l'interruption
00033A                00751 inth_end
00033A 909E           00752         bcf             PIR1, TMR1IF
00033C 94F2           00753         bcf             INTCON, TMR0IF
00033E 0011           00754         retfie  FAST
                      00755 
                      00756 
                      00757 
                      00758 
                      00759         #include "init.inc"
                      00001 ; +-----------------------------------------------------------------------------------------------------
                            ------------------------+
                      00002 ; | Gestion de 24 servos avec un PIC18F452                                                              
                                                                                                                            
                      00003 ; | Copyright (C) 2012 Charles RINCHEVAL (contact@digitalspirit.org)                                    
                                                                                                            |
                      00004 ; | Ce programme est libre, vous pouvez le redistribuer et/ou le modifier selon les termes de la Licence
                             Publique Générale GNU  |
                      00005 ; | publiée par la Free Software Foundation (version 2 ou bien toute autre version ultérieure choisie pa
                            r vous).                                |
                      00006 ; | Ce programme est distribué car potentiellement utile, mais SANS AUCUNE GARANTIE, ni explicite ni imp
                            licite,                                 |
                      00007 ; | y compris les garanties de commercialisation ou d'adaptation dans un but spécifique.                
                                                                                            |
                      00008 ; | Reportez-vous à la Licence Publique Générale GNU pour plus de détails.                              
                                                                                                            |
MPASM  5.48                          MAIN.ASM   7-2-2013  22:00:30         PAGE 18
Gestion de 24 servos !

LOC  OBJECT CODE     LINE SOURCE TEXT
  VALUE

                      00009 ; | Vous devez avoir reçu une copie de la Licence Publique Générale GNU en même temps que ce programme ;
                                                                            |
                      00010 ; | si ce n'est pas le cas,                                                                             
                                                                                                                            
                      00011 ; | écrivez à la Free Software Foundation, Inc., 59 Temple Place, Suite 330, Boston, MA 02111-1307, État
                            s-Unis.                                 |
                      00012 ; +-----------------------------------------------------------------------------------------------------
                            ------------------------+
                      00013 ; Initialisation du bouzin !
                      00014 
000340                00015 _init
                      00016 
                      00017         ; Configuration des ports
                      00018         MOVLF   b'00000000', TRISA
000340 0E00               M                 movlw   b'00000000'
000342 6E92               M                 movwf   TRISA
                      00019         MOVLF   b'00000000', TRISB
000344 0E00               M                 movlw   b'00000000'
000346 6E93               M                 movwf   TRISB
                      00020         MOVLF   b'10000000', TRISC
000348 0E80               M                 movlw   b'10000000'
00034A 6E94               M                 movwf   TRISC
                      00021         MOVLF   b'00000000', TRISD
00034C 0E00               M                 movlw   b'00000000'
00034E 6E95               M                 movwf   TRISD
                      00022         MOVLF   b'00000000', TRISE
000350 0E00               M                 movlw   b'00000000'
000352 6E96               M                 movwf   TRISE
                      00023 
                      00024         ; Initialisation des ports
                      00025         MOVLF   b'00000000', PORTA
000354 0E00               M                 movlw   b'00000000'
000356 6E80               M                 movwf   PORTA
                      00026         MOVLF   b'00000000', PORTB
000358 0E00               M                 movlw   b'00000000'
00035A 6E81               M                 movwf   PORTB
                      00027         MOVLF   b'00000000', PORTC
00035C 0E00               M                 movlw   b'00000000'
00035E 6E82               M                 movwf   PORTC
                      00028         MOVLF   b'00000000', PORTD
000360 0E00               M                 movlw   b'00000000'
000362 6E83               M                 movwf   PORTD
                      00029         MOVLF   b'00000000', PORTE
000364 0E00               M                 movlw   b'00000000'
000366 6E84               M                 movwf   PORTE
                      00030 
                      00031         ; RCON REGISTER
                      00032         ; +------+---+---+----+----+----+-----+-----+
                      00033         ; | IPEN |  |  | RI | TO | PD | POR | BOR |
                      00034         ; +------+---+---+----+----+----+-----+-----+
                      00035         ; bit 7
                      00036         ;       IPEN: Interrupt Priority Enable bit
                      00037         ;       1 = Enable priority levels on interrupts
MPASM  5.48                          MAIN.ASM   7-2-2013  22:00:30         PAGE 19
Gestion de 24 servos !

LOC  OBJECT CODE     LINE SOURCE TEXT
  VALUE

                      00038         ;       0 = Disable prioyarity levels on interrupts (16CXXX Compatibility mode)
                      00039         ; bit 6-5 Unimplemented: Read as '0'
                      00040         ; bit 4 RI: RESET Instruction Flag bit
                      00041         ;       1 = The RESET instruction was not executed
                      00042         ;       0 = The RESET instruction was executed causing a device RESET
                      00043         ;       (must be set in software after a Brown-out Reset occurs)
                      00044         ; bit 3 TO: Watchdog Time-out Flag bit
                      00045         ;       1 = After power-up, CLRWDT instruction, or SLEEP instruction
                      00046         ;       0 = A WDT time-out occurred
                      00047         ; bit 2 PD: Power-down Detection Flag bit
                      00048         ;       1 = After power-up or by the CLRWDT instruction
                      00049         ;       0 = By execution of the SLEEP instruction
                      00050         ; bit 1 POR: Power-on Reset Status bit
                      00051         ;       1 = A Power-on Reset has not occurred
                      00052         ;       0 = A Power-on Reset occurred
                      00053         ;       (must be set in software after a Power-on Reset occurs)
                      00054         ; bit 0 BOR: Brown-out Reset Status bit
                      00055         ;       1 = A Brown-out Reset has not occurred
                      00056         ;       0 = A Brown-out Reset occurred
                      00057         ;       (must be set in software after a Brown-out Reset occurs)
                      00058         MOVLF   b'10000000', RCON
000368 0E80               M                 movlw   b'10000000'
00036A 6ED0               M                 movwf   RCON
                      00059 
                      00060         ; INTCON Register
                      00061         ; +----------+-----------+--------+--------+------+--------+--------+------+
                      00062         ; | GIE/GIEH | PEIE/GIEL | TMR0IE | INT0IE | RBIE | TMR0IF | INT0IF | RBIF |
                      00063         ; +----------+-----------+--------+--------+------+--------+--------+------+
                      00064         ; bit 7 GIE/GIEH: Global Interrupt Enable bit
                      00065         ;       When IPEN = 0:
                      00066         ;               1 = Enables all unmasked interrupts
                      00067         ;               0 = Disables all interrupts
                      00068         ;       When IPEN = 1:
                      00069         ;               1 = Enables all high priority interrupts
                      00070         ;               0 = Disables all interrupts
                      00071         ; bit 6 PEIE/GIEL: Peripheral Interrupt Enable bit
                      00072         ;       When IPEN = 0:
                      00073         ;               1 = Enables all unmasked peripheral interrupts
                      00074         ;               0 = Disables all peripheral interrupts
                      00075         ;       When IPEN = 1:
                      00076         ;               1 = Enables all low priority peripheral interrupts
                      00077         ;               0 = Disables all low priority peripheral interrupts
                      00078         ; bit 5 TMR0IE: TMR0 Overflow Interrupt Enable bit
                      00079         ;       1 = Enables the TMR0 overflow interrupt
                      00080         ;       0 = Disables the TMR0 overflow interrupt
                      00081         ; bit 4 INT0IE: INT0 External Interrupt Enable bit
                      00082         ;       1 = Enables the INT0 external interrupt
                      00083         ;       0 = Disables the INT0 external interrupt
                      00084         ; bit 3 RBIE: RB Port Change Interrupt Enable bit
                      00085         ;       1 = Enables the RB port change interrupt
                      00086         ;       0 = Disables the RB port change interrupt
                      00087         ; bit 2 TMR0IF: TMR0 Overflow Interrupt Flag bit
                      00088         ;       1 = TMR0 register has overflowed (must be cleared in software)
MPASM  5.48                          MAIN.ASM   7-2-2013  22:00:30         PAGE 20
Gestion de 24 servos !

LOC  OBJECT CODE     LINE SOURCE TEXT
  VALUE

                      00089         ;       0 = TMR0 register did not overflow
                      00090         ; bit 1 INT0IF: INT0 External Interrupt Flag bit
                      00091         ;       1 = The INT0 external interrupt occurred (must be cleared in software)
                      00092         ;       0 = The INT0 external interrupt did not occur
                      00093         ; bit 0 RBIF: RB Port Change Interrupt Flag bit
                      00094         ;       1 = At least one of the RB7:RB4 pins changed state (must be cleared in software)
                      00095         ;       0 = None of the RB7:RB4 pins have changed state
                      00096         MOVLF   b'00100100', INTCON
00036C 0E24               M                 movlw   b'00100100'
00036E 6EF2               M                 movwf   INTCON
                      00097         ;bsf            INTCON, TMR0IF
                      00098 
                      00099         ; INTCON2 Register
                      00100         ; +------+---------+---------+---------+---+--------+---+------+
                      00101         ; | RBPU | INTEDG0 | INTEDG1 | INTEDG2 |  | TMR0IP |  | RBIP |
                      00102         ; +------+---------+---------+---------+---+--------+---+------+
                      00103         ; bit 7 RBPU: PORTB Pull-up Enable bit
                      00104         ;       1 = All PORTB pull-ups are disabled
                      00105         ;       0 = PORTB pull-ups are enabled by individual port latch values
                      00106         ; bit 6 INTEDG0:External Interrupt0 Edge Select bit
                      00107         ;       1 = Interrupt on rising edge
                      00108         ;       0 = Interrupt on falling edge
                      00109         ; bit 5 INTEDG1: External Interrupt1 Edge Select bit
                      00110         ;       1 = Interrupt on rising edge
                      00111         ;       0 = Interrupt on falling edge
                      00112         ; bit 4 INTEDG2: External Interrupt2 Edge Select bit
                      00113         ;       1 = Interrupt on rising edge
                      00114         ;       0 = Interrupt on falling edge
                      00115         ; bit 3 Unimplemented: Read as '1'
                      00116         ; bit 2 TMR0IP: TMR0 Overflow Interrupt Priority bit
                      00117         ;       1 = TMR0 Overflow Interrupt is a high priority event
                      00118         ;       0 = TMR0 Overflow Interrupt is a low priority event
                      00119         ; bit 1 Unimplemented: Read as '1'
                      00120         ; bit 0 RBIP: RB Port Change Interrupt Priority bit
                      00121         ;       1 = RB Port Change Interrupt is a high priority event
                      00122         ;       0 = RB Port Change Interrupt is a low priority event
                      00123         MOVLF   b'10001110', INTCON2
000370 0E8E               M                 movlw   b'10001110'
000372 6EF1               M                 movwf   INTCON2
                      00124 
                      00125 
                      00126         ; T0CON: TIMER0 CONTROL REGISTER
                      00127         ; +--------+--------+------+------+-----+-------+-------+-------+
                      00128         ; | TMR0ON | T08BIT | T0CS | T0SE | PSA | T0PS2 | T0PS1 | T0PS0 |
                      00129         ; +--------+--------+------+------+-----+-------+-------+-------+
                      00130         ; bit 7 TMR0ON: Timer0 On/Off Control bit
                      00131         ;       1 = Enables Timer0
                      00132         ;       0 = Stops Timer0
                      00133         ; bit 6 T08BIT: Timer0 8-bit/16-bit Control bit
                      00134         ;       1 = Timer0 is configured as an 8-bit timer/counter
                      00135         ;       0 = Timer0 is configured as a 16-bit timer/counter
                      00136         ; bit 5 T0CS: Timer0 Clock Source Select bit
                      00137         ;       1 = Transition on T0CKI pin
MPASM  5.48                          MAIN.ASM   7-2-2013  22:00:30         PAGE 21
Gestion de 24 servos !

LOC  OBJECT CODE     LINE SOURCE TEXT
  VALUE

                      00138         ;       0 = Internal instruction cycle clock (CLKO)
                      00139         ; bit 4 T0SE: Timer0 Source Edge Select bit
                      00140         ;       1 = Increment on high-to-low transition on T0CKI pin
                      00141         ;       0 = Increment on low-to-high transition on T0CKI pin
                      00142         ; bit 3 PSA: Timer0 Prescaler Assignment bit
                      00143         ;       1 = TImer0 prescaler is NOT assigned. Timer0 clock input bypasses prescaler.
                      00144         ;       0 = Timer0 prescaler is assigned. Timer0 clock input comes from prescaler output.
                      00145         ; bit 2-0 T0PS2:T0PS0: Timer0 Prescaler Select bits
                      00146         ;       111 = 1:256 prescale value
                      00147         ;       110 = 1:128 prescale value
                      00148         ;       101 = 1:64 prescale value 
                      00149         ;       100 = 1:32 prescale value
                      00150         ;       011 = 1:16 prescale value
                      00151         ;       010 = 1:8 prescale value
                      00152         ;       001 = 1:4 prescale value
                      00153         ;       000 = 1:2 prescale value
                      00154 ;       MOVLF   b'10010010', T0CON
                      00155 ;#DEFINE        T0CON_VALUE     b'10010000'
                      00156 ;       MOVLF   T0CON_VALUE, T0CON
                      00157         MOVLF   b'10010000', T0CON
000374 0E90               M                 movlw   b'10010000'
000376 6ED5               M                 movwf   T0CON
                      00158 
                      00159 
                      00160         ; T2CON Register
                      00161         ; +---+---------+---------+---------+---------+--------+---------+---------+
                      00162         ; |      | TOUTPS3 | TOUTPS2 | TOUTPS1 | TOUTPS0 | TMR2ON | T2CKPS1 | T2CKPS0 |
                      00163         ; +---+---------+---------+---------+---------+--------+---------+---------+
                      00164         ; bit 7 Unimplemented: Read as '0'
                      00165         ; bit 6-3 TOUTPS3:TOUTPS0: Timer2 Output Postscale Select bits
                      00166         ; 0000 = 1:1 Postscale
                      00167         ; 0001 = 1:2 Postscale
                      00168         ; 
                      00169         ; 
                      00170         ; 
                      00171         ; 1111 = 1:16 Postscale
                      00172         ; bit 2 TMR2ON: Timer2 On bit
                      00173         ;       1 = Timer2 is on
                      00174         ;       0 = Timer2 is off
                      00175         ; bit 1-0 T2CKPS1:T2CKPS0: Timer2 Clock Prescale Select bits
                      00176         ;       00 = Prescaler is 1
                      00177         ;       01 = Prescaler is 4
                      00178         ;       1x = Prescaler is 16
                      00179         MOVLF   b'00000000', T2CON
000378 0E00               M                 movlw   b'00000000'
00037A 6ECA               M                 movwf   T2CON
                      00180 
                      00181 ;       bsf             PIE1, TMR2IE
                      00182 ;       MOVLF   b'11111111', PR2
                      00183 
                      00184 
                      00185         ; T3CON: TIMER3 CONTROL REGISTER
                      00186         ; +------+--------+---------+---------+--------+-------+---------+--------+
MPASM  5.48                          MAIN.ASM   7-2-2013  22:00:30         PAGE 22
Gestion de 24 servos !

LOC  OBJECT CODE     LINE SOURCE TEXT
  VALUE

                      00187         ; | RD16 | T3CCP2 | T3CKPS1 | T3CKPS0 | T3CCP1 | T3SYN |C TMR3CS | TMR3ON |
                      00188         ; +------+--------+---------+---------+--------+-------+---------+--------+
                      00189         ; bit 7 RD16: 16-bit Read/Write Mode Enable bit
                      00190         ;       1 = Enables register Read/Write of Timer3 in one 16-bit operation
                      00191         ;       0 = Enables register Read/Write of Timer3 in two 8-bit operations
                      00192         ; bit 6-3 T3CCP2:T3CCP1: Timer3 and Timer1 to CCPx Enable bits
                      00193         ;       1x = Timer3 is the clock source for compare/capture CCP modules
                      00194         ;       01 = Timer3 is the clock source for compare/capture of CCP2, Timer1 is the clock source 
                            for compare/capture of CCP1
                      00195         ;       00 = Timer1 is the clock source for compare/capture CCP modules
                      00196         ; bit 5-4 T3CKPS1:T3CKPS0: Timer3 Input Clock Prescale Select bits
                      00197         ;       11 = 1:8 Prescale value
                      00198         ;       10 = 1:4 Prescale value
                      00199         ;       01 = 1:2 Prescale value
                      00200         ;       00 = 1:1 Prescale value
                      00201         ; bit 2 T3SYNC: Timer3 External Clock Input Synchronization Control bit
                      00202         ;       (Not usable if the system clock comes from Timer1/Timer3)
                      00203         ;       When TMR3CS = 1:
                      00204         ;               1 = Do not synchronize external clock input
                      00205         ;               0 = Synchronize external clock input
                      00206         ;       When TMR3CS = 0:
                      00207         ;               This bit is ignored. Timer3 uses the internal clock when TMR3CS = 0.
                      00208         ; bit 1 TMR3CS: Timer3 Clock Source Select bit
                      00209         ;       1 = External clock input from Timer1 oscillator or T1CKI
                      00210         ;               (on the rising edge after the first falling edge)
                      00211         ;       0 = Internal clock (FOSC/4)
                      00212         ; bit 0 TMR3ON: Timer3 On bit
                      00213         ;       1 = Enables Timer3
                      00214         ;       0 = Stops Timer3
                      00215 ;       MOVLF   b'10011000', T3CON
                      00216 
                      00217 ;       bsf             PIE2, TMR3IE
                      00218 ;       bsf             IPR2, TMR3IP
                      00219 
                      00220 
                      00221         MOVLF   b'10100000', T1CON
00037C 0EA0               M                 movlw   b'10100000'
00037E 6ECD               M                 movwf   T1CON
000380 809D           00222         bsf             PIE1, TMR1IE
000382 809F           00223         bsf             IPR1, TMR1IP
                      00224 
                      00225 
                      00226         ; ##################
000384 0E01           00227         movlw   .1
000386 6E47           00228         movwf   phase
                      00229 
000388 6A48           00230         clrf    phase_cmpt
                      00231 
00038A 6A3C           00232         clrf    cmpt_pass
00038C 0E80           00233         movlw   .128
00038E 6E3D           00234         movwf   current_cons
                      00235 
                      00236 ;       movlw   .1
MPASM  5.48                          MAIN.ASM   7-2-2013  22:00:30         PAGE 23
Gestion de 24 servos !

LOC  OBJECT CODE     LINE SOURCE TEXT
  VALUE

                      00237 ;       movwf   cmpt_word
000390 6A57           00238         clrf    received_counter
                      00239 
                      00240 ;       movwf   pos_recept
                      00241         
                      00242 
                      00243         ; Liaison série !
                      00244 ;       #define BAUD  .9600
                      00245 ;       #define XTAL  .4000000
                      00246 ;       #define X     ((XTAL * .1000000) / ( .64 * BAUD)) - 1
                      00247 
                      00248         #define         BAUD    .9600
                      00249         #define         XTAL    .40000000
                      00250         #define         X               ((XTAL / BAUD) / 64) - 1
                      00251 
                      00252 ;messg X
                      00253 
                      00254         MOVLF   .64, SPBRG
000392 0E40               M                 movlw   .64
000394 6EAF               M                 movwf   SPBRG
                      00255 ;       MOVLF   X, SPBRG
                      00256 
000396 98AC           00257         bcf             TXSTA, SYNC
                      00258 
000398 8EAB           00259         bsf             RCSTA, SPEN
00039A 9CAB           00260         bcf             RCSTA, RX9
00039C 88AB           00261         bsf             RCSTA, CREN
                      00262 
00039E 8A9D           00263         bsf             PIE1, RCIE
0003A0 9A9F           00264         bcf             IPR1, RCIP
                      00265 
                      00266         ; Ajout hugo, le 11/01/2006
                      00267         MOVLF   b'00100001', TXSTA
0003A2 0E21               M                 movlw   b'00100001'
0003A4 6EAC               M                 movwf   TXSTA
                      00268 
0003A6 8A9D           00269         bsf             PIE1, RCIE
0003A8 989F           00270         bcf             IPR1, TXIP
                      00271         ; Fin ajout hugo
                      00272 
                      00273 ;;;;;;;;;;clrf  ADCON0
                      00274 
                      00275 
                      00276 ;; SEND A CHAR
                      00277 ;;      MOVLF   .51, SPBRG
                      00278 ;       MOVLF   X, SPBRG
                      00279 ;
                      00280 ;       MOVLF   b'00100001', TXSTA
                      00281 ;       MOVLF   b'10110000', RCSTA
                      00282 ;
                      00283 ;       bsf             PIE1, RCIE
                      00284 ;       bcf             IPR1, TXIP
                      00285 ;
MPASM  5.48                          MAIN.ASM   7-2-2013  22:00:30         PAGE 24
Gestion de 24 servos !

LOC  OBJECT CODE     LINE SOURCE TEXT
  VALUE

                      00286 ;       movlw   b'10101010'
                      00287 ;       movwf   TXREG
                      00288 
                      00289 
                      00290 ;       MOVLW   .25 ; Set Baud Rate
                      00291 ;       MOVWF   SPBRG
                      00292 ;       MOVLW   0xB0 ; Synchronous Master,8-bit transmit,
                      00293 ;       MOVWF   TXSTA ; transmitter enabled, low speed mode
                      00294 ;       BSF             PIE1,TXIE ; Enable transmit interrupts
                      00295 ;       BSF             PIE1,RCIE ; Enable receive interrupts
                      00296 ;
                      00297 ;       MOVLW   0x90 ; 8-bit receive, receiver enabled,
                      00298 ;       MOVWF   RCSTA ; continuous receive, serial port enabled
                      00760         #include "init2.inc"
                      00001 ; +-----------------------------------------------------------------------------------------------------
                            ------------------------+
                      00002 ; | Gestion de 24 servos avec un PIC18F452                                                              
                                                                                                                            
                      00003 ; | Copyright (C) 2012 Charles RINCHEVAL (contact@digitalspirit.org)                                    
                                                                                                            |
                      00004 ; | Ce programme est libre, vous pouvez le redistribuer et/ou le modifier selon les termes de la Licence
                             Publique Générale GNU  |
                      00005 ; | publiée par la Free Software Foundation (version 2 ou bien toute autre version ultérieure choisie pa
                            r vous).                                |
                      00006 ; | Ce programme est distribué car potentiellement utile, mais SANS AUCUNE GARANTIE, ni explicite ni imp
                            licite,                                 |
                      00007 ; | y compris les garanties de commercialisation ou d'adaptation dans un but spécifique.                
                                                                                            |
                      00008 ; | Reportez-vous à la Licence Publique Générale GNU pour plus de détails.                              
                                                                                                            |
                      00009 ; | Vous devez avoir reçu une copie de la Licence Publique Générale GNU en même temps que ce programme ;
                                                                            |
                      00010 ; | si ce n'est pas le cas,                                                                             
                                                                                                                            
                      00011 ; | écrivez à la Free Software Foundation, Inc., 59 Temple Place, Suite 330, Boston, MA 02111-1307, État
                            s-Unis.                                 |
                      00012 ; +-----------------------------------------------------------------------------------------------------
                            ------------------------+
                      00013 
                      00014 #DEFINE CONS_ALL_0
                      00015 ;#DEFINE        CONS_ALL_1
                      00016 ;#DEFINE        CONS_ALL_254
                      00017 ;#DEFINE        CONS_DEC
                      00018 ;#DEFINE        CONS_INC
                      00019 
                      00020 #IFDEF  CONS_ALL_0
                      00021         MOVLF   .0, servo_cons0         ; 00
0003AA 0E00               M                 movlw   .0
0003AC 6E00               M                 movwf   servo_cons0
                      00022         MOVLF   .0, servo_cons1         ; 01
0003AE 0E00               M                 movlw   .0
0003B0 6E01               M                 movwf   servo_cons1
                      00023         MOVLF   .0, servo_cons2         ; 02
MPASM  5.48                          MAIN.ASM   7-2-2013  22:00:30         PAGE 25
Gestion de 24 servos !

LOC  OBJECT CODE     LINE SOURCE TEXT
  VALUE

0003B2 0E00               M                 movlw   .0
0003B4 6E02               M                 movwf   servo_cons2
                      00024         MOVLF   .0, servo_cons3         ; 03
0003B6 0E00               M                 movlw   .0
0003B8 6E03               M                 movwf   servo_cons3
                      00025         MOVLF   .0, servo_cons4         ; 04
0003BA 0E00               M                 movlw   .0
0003BC 6E04               M                 movwf   servo_cons4
                      00026         MOVLF   .0, servo_cons5         ; 05
0003BE 0E00               M                 movlw   .0
0003C0 6E05               M                 movwf   servo_cons5
                      00027         MOVLF   .0, servo_cons6         ; 06
0003C2 0E00               M                 movlw   .0
0003C4 6E06               M                 movwf   servo_cons6
                      00028         MOVLF   .0, servo_cons7         ; 07
0003C6 0E00               M                 movlw   .0
0003C8 6E07               M                 movwf   servo_cons7
                      00029         MOVLF   .0, servo_cons8         ; 08
0003CA 0E00               M                 movlw   .0
0003CC 6E08               M                 movwf   servo_cons8
                      00030         MOVLF   .0, servo_cons9         ; 09
0003CE 0E00               M                 movlw   .0
0003D0 6E09               M                 movwf   servo_cons9
                      00031         MOVLF   .0, servo_cons10        ; 0A
0003D2 0E00               M                 movlw   .0
0003D4 6E0A               M                 movwf   servo_cons10
                      00032         MOVLF   .0, servo_cons11        ; 0B
0003D6 0E00               M                 movlw   .0
0003D8 6E0B               M                 movwf   servo_cons11
                      00033         MOVLF   .0, servo_cons12        ; 0C
0003DA 0E00               M                 movlw   .0
0003DC 6E0C               M                 movwf   servo_cons12
                      00034         MOVLF   .0, servo_cons13        ; 0D
0003DE 0E00               M                 movlw   .0
0003E0 6E0D               M                 movwf   servo_cons13
                      00035         MOVLF   .0, servo_cons14        ; 0E
0003E2 0E00               M                 movlw   .0
0003E4 6E0E               M                 movwf   servo_cons14
                      00036         MOVLF   .0, servo_cons15        ; 0F
0003E6 0E00               M                 movlw   .0
0003E8 6E0F               M                 movwf   servo_cons15
                      00037         MOVLF   .0, servo_cons16        ; 10
0003EA 0E00               M                 movlw   .0
0003EC 6E10               M                 movwf   servo_cons16
                      00038         MOVLF   .0, servo_cons17        ; 12
0003EE 0E00               M                 movlw   .0
0003F0 6E11               M                 movwf   servo_cons17
                      00039         MOVLF   .0, servo_cons18        ; 13
0003F2 0E00               M                 movlw   .0
0003F4 6E12               M                 movwf   servo_cons18
                      00040         MOVLF   .0, servo_cons19        ; 14
0003F6 0E00               M                 movlw   .0
0003F8 6E13               M                 movwf   servo_cons19
MPASM  5.48                          MAIN.ASM   7-2-2013  22:00:30         PAGE 26
Gestion de 24 servos !

LOC  OBJECT CODE     LINE SOURCE TEXT
  VALUE

                      00041         MOVLF   .0, servo_cons20        ; 15
0003FA 0E00               M                 movlw   .0
0003FC 6E14               M                 movwf   servo_cons20
                      00042         MOVLF   .0, servo_cons21        ; 16
0003FE 0E00               M                 movlw   .0
000400 6E15               M                 movwf   servo_cons21
                      00043         MOVLF   .0, servo_cons22        ; 17
000402 0E00               M                 movlw   .0
000404 6E16               M                 movwf   servo_cons22
                      00044         MOVLF   .0, servo_cons23        ; 18
000406 0E00               M                 movlw   .0
000408 6E17               M                 movwf   servo_cons23
                      00045 #ENDIF
                      00046 
                      00047 #IFDEF  CONS_ALL_1
                      00048         MOVLF   .1, servo_cons0         ; 00
                      00049         MOVLF   .1, servo_cons1         ; 01
                      00050         MOVLF   .1, servo_cons2         ; 02
                      00051         MOVLF   .1, servo_cons3         ; 03
                      00052         MOVLF   .1, servo_cons4         ; 04
                      00053         MOVLF   .1, servo_cons5         ; 05
                      00054         MOVLF   .1, servo_cons6         ; 06
                      00055         MOVLF   .1, servo_cons7         ; 07
                      00056         MOVLF   .1, servo_cons8         ; 08
                      00057         MOVLF   .1, servo_cons9         ; 09
                      00058         MOVLF   .1, servo_cons10        ; 0A
                      00059         MOVLF   .1, servo_cons11        ; 0B
                      00060         MOVLF   .1, servo_cons12        ; 0C
                      00061         MOVLF   .1, servo_cons13        ; 0D
                      00062         MOVLF   .1, servo_cons14        ; 0E
                      00063         MOVLF   .1, servo_cons15        ; 0F
                      00064         MOVLF   .1, servo_cons16        ; 10
                      00065         MOVLF   .1, servo_cons17        ; 12
                      00066         MOVLF   .1, servo_cons18        ; 13
                      00067         MOVLF   .1, servo_cons19        ; 14
                      00068         MOVLF   .1, servo_cons20        ; 15
                      00069         MOVLF   .1, servo_cons21        ; 16
                      00070         MOVLF   .1, servo_cons22        ; 17
                      00071         MOVLF   .1, servo_cons23        ; 18
                      00072 #ENDIF
                      00073 
                      00074 #IFDEF  CONS_ALL_254
                      00075         MOVLF   .254, servo_cons0               ; 00
                      00076         MOVLF   .254, servo_cons1               ; 01
                      00077         MOVLF   .254, servo_cons2               ; 02
                      00078         MOVLF   .254, servo_cons3               ; 03
                      00079         MOVLF   .254, servo_cons4               ; 04
                      00080         MOVLF   .254, servo_cons5               ; 05
                      00081         MOVLF   .254, servo_cons6               ; 06
                      00082         MOVLF   .254, servo_cons7               ; 07
                      00083         MOVLF   .254, servo_cons8               ; 08
                      00084         MOVLF   .254, servo_cons9               ; 09
                      00085         MOVLF   .254, servo_cons10      ; 0A
MPASM  5.48                          MAIN.ASM   7-2-2013  22:00:30         PAGE 27
Gestion de 24 servos !

LOC  OBJECT CODE     LINE SOURCE TEXT
  VALUE

                      00086         MOVLF   .254, servo_cons11      ; 0B
                      00087         MOVLF   .254, servo_cons12      ; 0C
                      00088         MOVLF   .254, servo_cons13      ; 0D
                      00089         MOVLF   .254, servo_cons14      ; 0E
                      00090         MOVLF   .254, servo_cons15      ; 0F
                      00091         MOVLF   .254, servo_cons16      ; 10
                      00092         MOVLF   .254, servo_cons17      ; 12
                      00093         MOVLF   .254, servo_cons18      ; 13
                      00094         MOVLF   .254, servo_cons19      ; 14
                      00095         MOVLF   .254, servo_cons20      ; 15
                      00096         MOVLF   .254, servo_cons21      ; 16
                      00097         MOVLF   .254, servo_cons22      ; 17
                      00098         MOVLF   .254, servo_cons23      ; 18
                      00099 #ENDIF
                      00100 
                      00101 #IFDEF  CONS_DEC
                      00102         MOVLF   .255, servo_cons0               ; 00
                      00103         MOVLF   .220, servo_cons1               ; 01
                      00104         MOVLF   .210, servo_cons2               ; 02
                      00105         MOVLF   .200, servo_cons3               ; 03
                      00106         MOVLF   .190, servo_cons4               ; 04
                      00107         MOVLF   .180, servo_cons5               ; 05
                      00108         MOVLF   .170, servo_cons6               ; 06
                      00109         MOVLF   .160, servo_cons7               ; 07
                      00110         MOVLF   .150, servo_cons8               ; 08
                      00111         MOVLF   .140, servo_cons9               ; 09
                      00112         MOVLF   .130, servo_cons10      ; 0A
                      00113         MOVLF   .120, servo_cons11      ; 0B
                      00114         MOVLF   .110, servo_cons12      ; 0C
                      00115         MOVLF   .100, servo_cons13      ; 0D
                      00116         MOVLF   .90, servo_cons14       ; 0E
                      00117         MOVLF   .80, servo_cons15       ; 0F
                      00118         MOVLF   .70, servo_cons16       ; 10
                      00119         MOVLF   .60, servo_cons17       ; 12
                      00120         MOVLF   .50, servo_cons18       ; 13
                      00121         MOVLF   .40, servo_cons19       ; 14
                      00122         MOVLF   .30, servo_cons20       ; 15
                      00123         MOVLF   .20, servo_cons21       ; 16
                      00124         MOVLF   .10, servo_cons22       ; 17
                      00125         MOVLF   .1, servo_cons23        ; 18
                      00126 #ENDIF
                      00127 
                      00128 
                      00129 #IFDEF  CONS_INC
                      00130         MOVLF   .1, servo_cons0         ; 00
                      00131         MOVLF   .2, servo_cons1         ; 01
                      00132         MOVLF   .3, servo_cons2         ; 02
                      00133         MOVLF   .4, servo_cons3         ; 03
                      00134         MOVLF   .5, servo_cons4         ; 04
                      00135         MOVLF   .6, servo_cons5         ; 05
                      00136         MOVLF   .7, servo_cons6         ; 06
                      00137         MOVLF   .8, servo_cons7         ; 07
                      00138         MOVLF   .9, servo_cons8         ; 08
MPASM  5.48                          MAIN.ASM   7-2-2013  22:00:30         PAGE 28
Gestion de 24 servos !

LOC  OBJECT CODE     LINE SOURCE TEXT
  VALUE

                      00139         MOVLF   .10, servo_cons9        ; 09
                      00140         MOVLF   .11, servo_cons10       ; 0A
                      00141         MOVLF   .12, servo_cons11       ; 0B
                      00142         MOVLF   .13, servo_cons12       ; 0C
                      00143         MOVLF   .14, servo_cons13       ; 0D
                      00144         MOVLF   .15, servo_cons14       ; 0E
                      00145         MOVLF   .16, servo_cons15       ; 0F
                      00146         MOVLF   .17, servo_cons16       ; 10
                      00147         MOVLF   .18, servo_cons17       ; 12
                      00148         MOVLF   .19, servo_cons18       ; 13
                      00149         MOVLF   .20, servo_cons19       ; 14
                      00150         MOVLF   .128, servo_cons20      ; 15
                      00151         MOVLF   .129, servo_cons21      ; 16
                      00152         MOVLF   .253, servo_cons22      ; 17
                      00153         MOVLF   .254, servo_cons23      ; 18
                      00154 #ENDIF
                      00155 
                      00156 
00040A 0101           00157         movlb   .1
                      00158 
                      00159 #IFDEF  CONS_INC
                      00160 
                      00161         MOVLFB  .1, servo_nbr00
                      00162         MOVLFB  .1, servo_nbr01
                      00163         MOVLFB  .1, servo_nbr02
                      00164         MOVLFB  .1, servo_nbr03
                      00165         MOVLFB  .1, servo_nbr04
                      00166         MOVLFB  .1, servo_nbr05
                      00167         MOVLFB  .1, servo_nbr06
                      00168         MOVLFB  .1, servo_nbr07
                      00169         MOVLFB  .1, servo_nbr08
                      00170         MOVLFB  .1, servo_nbr09
                      00171         MOVLFB  .1, servo_nbr10
                      00172         MOVLFB  .1, servo_nbr11
                      00173         MOVLFB  .1, servo_nbr12
                      00174         MOVLFB  .1, servo_nbr13
                      00175         MOVLFB  .1, servo_nbr14
                      00176         MOVLFB  .1, servo_nbr15
                      00177         MOVLFB  .1, servo_nbr16
                      00178         MOVLFB  .1, servo_nbr17
                      00179         MOVLFB  .1, servo_nbr18
                      00180         MOVLFB  .1, servo_nbr19
                      00181         MOVLFB  .1, servo_nbr20
                      00182         MOVLFB  .1, servo_nbr21
                      00183         MOVLFB  .1, servo_nbr22
                      00184         MOVLFB  .1, servo_nbr23
                      00185 
                      00186         MOVLFB  b'00000001', servo_val00
                      00187         MOVLFB  b'00000000', servo_val01                ; 0
                      00188         MOVLFB  b'00000000', servo_val02
                      00189 
                      00190         MOVLFB  b'00000010', servo_val03
                      00191         MOVLFB  b'00000000', servo_val04                ; 1
MPASM  5.48                          MAIN.ASM   7-2-2013  22:00:30         PAGE 29
Gestion de 24 servos !

LOC  OBJECT CODE     LINE SOURCE TEXT
  VALUE

                      00192         MOVLFB  b'00000000', servo_val05
                      00193 
                      00194         MOVLFB  b'00000100', servo_val06
                      00195         MOVLFB  b'00000000', servo_val07                ; 2
                      00196         MOVLFB  b'00000000', servo_val08
                      00197 
                      00198         MOVLFB  b'00001000', servo_val09
                      00199         MOVLFB  b'00000000', servo_val10                ; 3
                      00200         MOVLFB  b'00000000', servo_val11
                      00201 
                      00202         MOVLFB  b'00010000', servo_val12
                      00203         MOVLFB  b'00000000', servo_val13                ; 4
                      00204         MOVLFB  b'00000000', servo_val14
                      00205 
                      00206         MOVLFB  b'00100000', servo_val15
                      00207         MOVLFB  b'00000000', servo_val16                ; 5
                      00208         MOVLFB  b'00000000', servo_val17
                      00209 
                      00210         MOVLFB  b'01000000', servo_val18
                      00211         MOVLFB  b'00000000', servo_val19                ; 6
                      00212         MOVLFB  b'00000000', servo_val20
                      00213 
                      00214         MOVLFB  b'10000000', servo_val21
                      00215         MOVLFB  b'00000000', servo_val22                ; 7
                      00216         MOVLFB  b'00000000', servo_val23
                      00217 
                      00218         MOVLFB  b'00000000', servo_val24
                      00219         MOVLFB  b'00000001', servo_val25                ; 8
                      00220         MOVLFB  b'00000000', servo_val26
                      00221 
                      00222         MOVLFB  b'00000000', servo_val27
                      00223         MOVLFB  b'00000010', servo_val28                ; 9
                      00224         MOVLFB  b'00000000', servo_val29
                      00225 
                      00226         MOVLFB  b'00000000', servo_val30
                      00227         MOVLFB  b'00000100', servo_val31                ; 10
                      00228         MOVLFB  b'00000000', servo_val32
                      00229 
                      00230         MOVLFB  b'00000000', servo_val33
                      00231         MOVLFB  b'00001000', servo_val34                ; 11
                      00232         MOVLFB  b'00000000', servo_val35
                      00233 
                      00234         MOVLFB  b'00000000', servo_val36
                      00235         MOVLFB  b'00010000', servo_val37                ; 12
                      00236         MOVLFB  b'00000000', servo_val38
                      00237 
                      00238         MOVLFB  b'00000000', servo_val39
                      00239         MOVLFB  b'00100000', servo_val40                ; 13
                      00240         MOVLFB  b'00000000', servo_val41
                      00241 
                      00242         MOVLFB  b'00000000', servo_val42
                      00243         MOVLFB  b'01000000', servo_val43                ; 14
                      00244         MOVLFB  b'00000000', servo_val44
MPASM  5.48                          MAIN.ASM   7-2-2013  22:00:30         PAGE 30
Gestion de 24 servos !

LOC  OBJECT CODE     LINE SOURCE TEXT
  VALUE

                      00245 
                      00246         MOVLFB  b'00000000', servo_val45
                      00247         MOVLFB  b'10000000', servo_val46                ; 15
                      00248         MOVLFB  b'00000000', servo_val47
                      00249 
                      00250         MOVLFB  b'00000000', servo_val48
                      00251         MOVLFB  b'00000000', servo_val49                ; 16
                      00252         MOVLFB  b'00000001', servo_val50
                      00253 
                      00254         MOVLFB  b'00000000', servo_val51
                      00255         MOVLFB  b'00000000', servo_val52                ; 17
                      00256         MOVLFB  b'00000010', servo_val53
                      00257 
                      00258         MOVLFB  b'00000000', servo_val54
                      00259         MOVLFB  b'00000000', servo_val55                ; 18
                      00260         MOVLFB  b'00000100', servo_val56
                      00261 
                      00262         MOVLFB  b'00000000', servo_val57
                      00263         MOVLFB  b'00000000', servo_val58                ; 19
                      00264         MOVLFB  b'00001000', servo_val59
                      00265 
                      00266         MOVLFB  b'00000000', servo_val60
                      00267         MOVLFB  b'00000000', servo_val61                ; 20
                      00268         MOVLFB  b'00010000', servo_val62
                      00269 
                      00270         MOVLFB  b'00000000', servo_val63
                      00271         MOVLFB  b'00000000', servo_val64                ; 21
                      00272         MOVLFB  b'00100000', servo_val65
                      00273 
                      00274         MOVLFB  b'00000000', servo_val66
                      00275         MOVLFB  b'00000000', servo_val67                ; 22
                      00276         MOVLFB  b'01000000', servo_val68
                      00277 
                      00278         MOVLFB  b'00000000', servo_val69
                      00279         MOVLFB  b'00000000', servo_val70                ; 23
                      00280         MOVLFB  b'10000000', servo_val71
                      00281 
                      00282 #ENDIF
                      00283 
                      00284 #IFDEF  CONS_ALL_0
                      00285 
                      00286         MOVLFB  .23, servo_nbr00
00040C 0E17               M                 movlw   .23
00040E 6F00               M                 movwf   servo_nbr00, BANKED
                      00287         MOVLFB  .0, servo_nbr01
000410 0E00               M                 movlw   .0
000412 6F01               M                 movwf   servo_nbr01, BANKED
                      00288         MOVLFB  .0, servo_nbr02
000414 0E00               M                 movlw   .0
000416 6F02               M                 movwf   servo_nbr02, BANKED
                      00289         MOVLFB  .0, servo_nbr03
000418 0E00               M                 movlw   .0
00041A 6F03               M                 movwf   servo_nbr03, BANKED
MPASM  5.48                          MAIN.ASM   7-2-2013  22:00:30         PAGE 31
Gestion de 24 servos !

LOC  OBJECT CODE     LINE SOURCE TEXT
  VALUE

                      00290         MOVLFB  .0, servo_nbr04
00041C 0E00               M                 movlw   .0
00041E 6F04               M                 movwf   servo_nbr04, BANKED
                      00291         MOVLFB  .0, servo_nbr05
000420 0E00               M                 movlw   .0
000422 6F05               M                 movwf   servo_nbr05, BANKED
                      00292         MOVLFB  .0, servo_nbr06
000424 0E00               M                 movlw   .0
000426 6F06               M                 movwf   servo_nbr06, BANKED
                      00293         MOVLFB  .0, servo_nbr07
000428 0E00               M                 movlw   .0
00042A 6F07               M                 movwf   servo_nbr07, BANKED
                      00294         MOVLFB  .0, servo_nbr08
00042C 0E00               M                 movlw   .0
00042E 6F08               M                 movwf   servo_nbr08, BANKED
                      00295         MOVLFB  .0, servo_nbr09
000430 0E00               M                 movlw   .0
000432 6F09               M                 movwf   servo_nbr09, BANKED
                      00296         MOVLFB  .0, servo_nbr10
000434 0E00               M                 movlw   .0
000436 6F0A               M                 movwf   servo_nbr10, BANKED
                      00297         MOVLFB  .0, servo_nbr11
000438 0E00               M                 movlw   .0
00043A 6F0B               M                 movwf   servo_nbr11, BANKED
                      00298         MOVLFB  .0, servo_nbr12
00043C 0E00               M                 movlw   .0
00043E 6F0C               M                 movwf   servo_nbr12, BANKED
                      00299         MOVLFB  .0, servo_nbr13
000440 0E00               M                 movlw   .0
000442 6F0D               M                 movwf   servo_nbr13, BANKED
                      00300         MOVLFB  .0, servo_nbr14
000444 0E00               M                 movlw   .0
000446 6F0E               M                 movwf   servo_nbr14, BANKED
                      00301         MOVLFB  .0, servo_nbr15
000448 0E00               M                 movlw   .0
00044A 6F0F               M                 movwf   servo_nbr15, BANKED
                      00302         MOVLFB  .0, servo_nbr16
00044C 0E00               M                 movlw   .0
00044E 6F10               M                 movwf   servo_nbr16, BANKED
                      00303         MOVLFB  .0, servo_nbr17
000450 0E00               M                 movlw   .0
000452 6F11               M                 movwf   servo_nbr17, BANKED
                      00304         MOVLFB  .0, servo_nbr18
000454 0E00               M                 movlw   .0
000456 6F12               M                 movwf   servo_nbr18, BANKED
                      00305         MOVLFB  .0, servo_nbr19
000458 0E00               M                 movlw   .0
00045A 6F13               M                 movwf   servo_nbr19, BANKED
                      00306         MOVLFB  .0, servo_nbr20
00045C 0E00               M                 movlw   .0
00045E 6F14               M                 movwf   servo_nbr20, BANKED
                      00307         MOVLFB  .0, servo_nbr21
000460 0E00               M                 movlw   .0
MPASM  5.48                          MAIN.ASM   7-2-2013  22:00:30         PAGE 32
Gestion de 24 servos !

LOC  OBJECT CODE     LINE SOURCE TEXT
  VALUE

000462 6F15               M                 movwf   servo_nbr21, BANKED
                      00308         MOVLFB  .0, servo_nbr22
000464 0E00               M                 movlw   .0
000466 6F16               M                 movwf   servo_nbr22, BANKED
                      00309         MOVLFB  .0, servo_nbr23
000468 0E00               M                 movlw   .0
00046A 6F17               M                 movwf   servo_nbr23, BANKED
                      00310 
                      00311         MOVLFB  b'11111111', servo_val00
00046C 0EFF               M                 movlw   b'11111111'
00046E 6F18               M                 movwf   servo_val00, BANKED
                      00312         MOVLFB  b'11111111', servo_val01                ; 0
000470 0EFF               M                 movlw   b'11111111'
000472 6F19               M                 movwf   servo_val01, BANKED
                      00313         MOVLFB  b'11111111', servo_val02
000474 0EFF               M                 movlw   b'11111111'
000476 6F1A               M                 movwf   servo_val02, BANKED
                      00314 
                      00315         MOVLFB  b'00000000', servo_val03
000478 0E00               M                 movlw   b'00000000'
00047A 6F1B               M                 movwf   servo_val03, BANKED
                      00316         MOVLFB  b'00000000', servo_val04                ; 1
00047C 0E00               M                 movlw   b'00000000'
00047E 6F1C               M                 movwf   servo_val04, BANKED
                      00317         MOVLFB  b'00000000', servo_val05
000480 0E00               M                 movlw   b'00000000'
000482 6F1D               M                 movwf   servo_val05, BANKED
                      00318 
                      00319         MOVLFB  b'00000000', servo_val06
000484 0E00               M                 movlw   b'00000000'
000486 6F1E               M                 movwf   servo_val06, BANKED
                      00320         MOVLFB  b'00000000', servo_val07                ; 2
000488 0E00               M                 movlw   b'00000000'
00048A 6F1F               M                 movwf   servo_val07, BANKED
                      00321         MOVLFB  b'00000000', servo_val08
00048C 0E00               M                 movlw   b'00000000'
00048E 6F20               M                 movwf   servo_val08, BANKED
                      00322 
                      00323         MOVLFB  b'00000000', servo_val09
000490 0E00               M                 movlw   b'00000000'
000492 6F21               M                 movwf   servo_val09, BANKED
                      00324         MOVLFB  b'00000000', servo_val10                ; 3
000494 0E00               M                 movlw   b'00000000'
000496 6F22               M                 movwf   servo_val10, BANKED
                      00325         MOVLFB  b'00000000', servo_val11
000498 0E00               M                 movlw   b'00000000'
00049A 6F23               M                 movwf   servo_val11, BANKED
                      00326 
                      00327         MOVLFB  b'00000000', servo_val12
00049C 0E00               M                 movlw   b'00000000'
00049E 6F24               M                 movwf   servo_val12, BANKED
                      00328         MOVLFB  b'00000000', servo_val13                ; 4
0004A0 0E00               M                 movlw   b'00000000'
MPASM  5.48                          MAIN.ASM   7-2-2013  22:00:30         PAGE 33
Gestion de 24 servos !

LOC  OBJECT CODE     LINE SOURCE TEXT
  VALUE

0004A2 6F25               M                 movwf   servo_val13, BANKED
                      00329         MOVLFB  b'00000000', servo_val14
0004A4 0E00               M                 movlw   b'00000000'
0004A6 6F26               M                 movwf   servo_val14, BANKED
                      00330 
                      00331         MOVLFB  b'00000000', servo_val15
0004A8 0E00               M                 movlw   b'00000000'
0004AA 6F27               M                 movwf   servo_val15, BANKED
                      00332         MOVLFB  b'00000000', servo_val16                ; 5
0004AC 0E00               M                 movlw   b'00000000'
0004AE 6F28               M                 movwf   servo_val16, BANKED
                      00333         MOVLFB  b'00000000', servo_val17
0004B0 0E00               M                 movlw   b'00000000'
0004B2 6F29               M                 movwf   servo_val17, BANKED
                      00334 
                      00335         MOVLFB  b'00000000', servo_val18
0004B4 0E00               M                 movlw   b'00000000'
0004B6 6F2A               M                 movwf   servo_val18, BANKED
                      00336         MOVLFB  b'00000000', servo_val19                ; 6
0004B8 0E00               M                 movlw   b'00000000'
0004BA 6F2B               M                 movwf   servo_val19, BANKED
                      00337         MOVLFB  b'00000000', servo_val20
0004BC 0E00               M                 movlw   b'00000000'
0004BE 6F2C               M                 movwf   servo_val20, BANKED
                      00338 
                      00339         MOVLFB  b'00000000', servo_val21
0004C0 0E00               M                 movlw   b'00000000'
0004C2 6F2D               M                 movwf   servo_val21, BANKED
                      00340         MOVLFB  b'00000000', servo_val22                ; 7
0004C4 0E00               M                 movlw   b'00000000'
0004C6 6F2E               M                 movwf   servo_val22, BANKED
                      00341         MOVLFB  b'00000000', servo_val23
0004C8 0E00               M                 movlw   b'00000000'
0004CA 6F2F               M                 movwf   servo_val23, BANKED
                      00342 
                      00343         MOVLFB  b'00000000', servo_val24
0004CC 0E00               M                 movlw   b'00000000'
0004CE 6F30               M                 movwf   servo_val24, BANKED
                      00344         MOVLFB  b'00000000', servo_val25                ; 8
0004D0 0E00               M                 movlw   b'00000000'
0004D2 6F31               M                 movwf   servo_val25, BANKED
                      00345         MOVLFB  b'00000000', servo_val26
0004D4 0E00               M                 movlw   b'00000000'
0004D6 6F32               M                 movwf   servo_val26, BANKED
                      00346 
                      00347         MOVLFB  b'00000000', servo_val27
0004D8 0E00               M                 movlw   b'00000000'
0004DA 6F33               M                 movwf   servo_val27, BANKED
                      00348         MOVLFB  b'00000000', servo_val28                ; 9
0004DC 0E00               M                 movlw   b'00000000'
0004DE 6F34               M                 movwf   servo_val28, BANKED
                      00349         MOVLFB  b'00000000', servo_val29
0004E0 0E00               M                 movlw   b'00000000'
MPASM  5.48                          MAIN.ASM   7-2-2013  22:00:30         PAGE 34
Gestion de 24 servos !

LOC  OBJECT CODE     LINE SOURCE TEXT
  VALUE

0004E2 6F35               M                 movwf   servo_val29, BANKED
                      00350 
                      00351         MOVLFB  b'00000000', servo_val30
0004E4 0E00               M                 movlw   b'00000000'
0004E6 6F36               M                 movwf   servo_val30, BANKED
                      00352         MOVLFB  b'00000000', servo_val31                ; 10
0004E8 0E00               M                 movlw   b'00000000'
0004EA 6F37               M                 movwf   servo_val31, BANKED
                      00353         MOVLFB  b'00000000', servo_val32
0004EC 0E00               M                 movlw   b'00000000'
0004EE 6F38               M                 movwf   servo_val32, BANKED
                      00354 
                      00355         MOVLFB  b'00000000', servo_val33
0004F0 0E00               M                 movlw   b'00000000'
0004F2 6F39               M                 movwf   servo_val33, BANKED
                      00356         MOVLFB  b'00000000', servo_val34                ; 11
0004F4 0E00               M                 movlw   b'00000000'
0004F6 6F3A               M                 movwf   servo_val34, BANKED
                      00357         MOVLFB  b'00000000', servo_val35
0004F8 0E00               M                 movlw   b'00000000'
0004FA 6F3B               M                 movwf   servo_val35, BANKED
                      00358 
                      00359         MOVLFB  b'00000000', servo_val36
0004FC 0E00               M                 movlw   b'00000000'
0004FE 6F3C               M                 movwf   servo_val36, BANKED
                      00360         MOVLFB  b'00000000', servo_val37                ; 12
000500 0E00               M                 movlw   b'00000000'
000502 6F3D               M                 movwf   servo_val37, BANKED
                      00361         MOVLFB  b'00000000', servo_val38
000504 0E00               M                 movlw   b'00000000'
000506 6F3E               M                 movwf   servo_val38, BANKED
                      00362 
                      00363         MOVLFB  b'00000000', servo_val39
000508 0E00               M                 movlw   b'00000000'
00050A 6F3F               M                 movwf   servo_val39, BANKED
                      00364         MOVLFB  b'00000000', servo_val40                ; 13
00050C 0E00               M                 movlw   b'00000000'
00050E 6F40               M                 movwf   servo_val40, BANKED
                      00365         MOVLFB  b'00000000', servo_val41
000510 0E00               M                 movlw   b'00000000'
000512 6F41               M                 movwf   servo_val41, BANKED
                      00366 
                      00367         MOVLFB  b'00000000', servo_val42
000514 0E00               M                 movlw   b'00000000'
000516 6F42               M                 movwf   servo_val42, BANKED
                      00368         MOVLFB  b'00000000', servo_val43                ; 14
000518 0E00               M                 movlw   b'00000000'
00051A 6F43               M                 movwf   servo_val43, BANKED
                      00369         MOVLFB  b'00000000', servo_val44
00051C 0E00               M                 movlw   b'00000000'
00051E 6F44               M                 movwf   servo_val44, BANKED
                      00370 
                      00371         MOVLFB  b'00000000', servo_val45
MPASM  5.48                          MAIN.ASM   7-2-2013  22:00:30         PAGE 35
Gestion de 24 servos !

LOC  OBJECT CODE     LINE SOURCE TEXT
  VALUE

000520 0E00               M                 movlw   b'00000000'
000522 6F45               M                 movwf   servo_val45, BANKED
                      00372         MOVLFB  b'00000000', servo_val46                ; 15
000524 0E00               M                 movlw   b'00000000'
000526 6F46               M                 movwf   servo_val46, BANKED
                      00373         MOVLFB  b'00000000', servo_val47
000528 0E00               M                 movlw   b'00000000'
00052A 6F47               M                 movwf   servo_val47, BANKED
                      00374 
                      00375         MOVLFB  b'00000000', servo_val48
00052C 0E00               M                 movlw   b'00000000'
00052E 6F48               M                 movwf   servo_val48, BANKED
                      00376         MOVLFB  b'00000000', servo_val49                ; 16
000530 0E00               M                 movlw   b'00000000'
000532 6F49               M                 movwf   servo_val49, BANKED
                      00377         MOVLFB  b'00000000', servo_val50
000534 0E00               M                 movlw   b'00000000'
000536 6F4A               M                 movwf   servo_val50, BANKED
                      00378 
                      00379         MOVLFB  b'00000000', servo_val51
000538 0E00               M                 movlw   b'00000000'
00053A 6F4B               M                 movwf   servo_val51, BANKED
                      00380         MOVLFB  b'00000000', servo_val52                ; 17
00053C 0E00               M                 movlw   b'00000000'
00053E 6F4C               M                 movwf   servo_val52, BANKED
                      00381         MOVLFB  b'00000000', servo_val53
000540 0E00               M                 movlw   b'00000000'
000542 6F4D               M                 movwf   servo_val53, BANKED
                      00382 
                      00383         MOVLFB  b'00000000', servo_val54
000544 0E00               M                 movlw   b'00000000'
000546 6F4E               M                 movwf   servo_val54, BANKED
                      00384         MOVLFB  b'00000000', servo_val55                ; 18
000548 0E00               M                 movlw   b'00000000'
00054A 6F4F               M                 movwf   servo_val55, BANKED
                      00385         MOVLFB  b'00000000', servo_val56
00054C 0E00               M                 movlw   b'00000000'
00054E 6F50               M                 movwf   servo_val56, BANKED
                      00386 
                      00387         MOVLFB  b'00000000', servo_val57
000550 0E00               M                 movlw   b'00000000'
000552 6F51               M                 movwf   servo_val57, BANKED
                      00388         MOVLFB  b'00000000', servo_val58                ; 19
000554 0E00               M                 movlw   b'00000000'
000556 6F52               M                 movwf   servo_val58, BANKED
                      00389         MOVLFB  b'00000000', servo_val59
000558 0E00               M                 movlw   b'00000000'
00055A 6F53               M                 movwf   servo_val59, BANKED
                      00390 
                      00391         MOVLFB  b'00000000', servo_val60
00055C 0E00               M                 movlw   b'00000000'
00055E 6F54               M                 movwf   servo_val60, BANKED
                      00392         MOVLFB  b'00000000', servo_val61                ; 20
MPASM  5.48                          MAIN.ASM   7-2-2013  22:00:30         PAGE 36
Gestion de 24 servos !

LOC  OBJECT CODE     LINE SOURCE TEXT
  VALUE

000560 0E00               M                 movlw   b'00000000'
000562 6F55               M                 movwf   servo_val61, BANKED
                      00393         MOVLFB  b'00000000', servo_val62
000564 0E00               M                 movlw   b'00000000'
000566 6F56               M                 movwf   servo_val62, BANKED
                      00394 
                      00395         MOVLFB  b'00000000', servo_val63
000568 0E00               M                 movlw   b'00000000'
00056A 6F57               M                 movwf   servo_val63, BANKED
                      00396         MOVLFB  b'00000000', servo_val64                ; 21
00056C 0E00               M                 movlw   b'00000000'
00056E 6F58               M                 movwf   servo_val64, BANKED
                      00397         MOVLFB  b'00000000', servo_val65
000570 0E00               M                 movlw   b'00000000'
000572 6F59               M                 movwf   servo_val65, BANKED
                      00398 
                      00399         MOVLFB  b'00000000', servo_val66
000574 0E00               M                 movlw   b'00000000'
000576 6F5A               M                 movwf   servo_val66, BANKED
                      00400         MOVLFB  b'00000000', servo_val67                ; 22
000578 0E00               M                 movlw   b'00000000'
00057A 6F5B               M                 movwf   servo_val67, BANKED
                      00401         MOVLFB  b'00000000', servo_val68
00057C 0E00               M                 movlw   b'00000000'
00057E 6F5C               M                 movwf   servo_val68, BANKED
                      00402 
                      00403         MOVLFB  b'00000000', servo_val69
000580 0E00               M                 movlw   b'00000000'
000582 6F5D               M                 movwf   servo_val69, BANKED
                      00404         MOVLFB  b'00000000', servo_val70                ; 23
000584 0E00               M                 movlw   b'00000000'
000586 6F5E               M                 movwf   servo_val70, BANKED
                      00405         MOVLFB  b'00000000', servo_val71
000588 0E00               M                 movlw   b'00000000'
00058A 6F5F               M                 movwf   servo_val71, BANKED
                      00406 
                      00407 #ENDIF
                      00408 
00058C 0100           00409         movlb   .0
                      00761 
                      00762 
                      00763 
                      00764         ;movlw  0
                      00765         ;call   setValue
                      00766 
00058E 6A57           00767         clrf    received_counter
000590 6A67           00768         clrf    pause_mode
                      00769 
                      00770 ; Routine principale
                      00771 
                      00772         ; Activation des interruptions
000592 8EF2           00773         bsf             INTCON, GIEH
000594 8CF2           00774         bsf             INTCON, GIEL
MPASM  5.48                          MAIN.ASM   7-2-2013  22:00:30         PAGE 37
Gestion de 24 servos !

LOC  OBJECT CODE     LINE SOURCE TEXT
  VALUE

                      00775         ;goto _intl_usart
                      00776 
000596                00777 main
                      00778         ; On boucle temps que 18 octets ne sont pas recu
000596 0E11           00779         movlw .17
000598 6257           00780         cpfseq received_counter
00059A EFCB F002      00781         goto main
                      00782 
00059E 6A57           00783         clrf received_counter
                      00784 
                      00785         ; Control received bytes
0005A0 0E00           00786         movlw 0
0005A2 2458           00787         addwf pos_0, 0
0005A4 2459           00788         addwf pos_1, 0
0005A6 245A           00789         addwf pos_2, 0
0005A8 245B           00790         addwf pos_3, 0
0005AA 245C           00791         addwf pos_4, 0
0005AC 245D           00792         addwf pos_5, 0
0005AE 245E           00793         addwf pos_6, 0
0005B0 245F           00794         addwf pos_7, 0
0005B2 2460           00795         addwf pos_8, 0
0005B4 2461           00796         addwf pos_9, 0
0005B6 2462           00797         addwf pos_10, 0
0005B8 2463           00798         addwf pos_11, 0
0005BA 2464           00799         addwf pos_12, 0
0005BC 2465           00800         addwf pos_13, 0
                      00801 
0005BE 6266           00802         cpfseq reception_control
0005C0 EF04 F003      00803         goto nack
                      00804 
                      00805 ; Tout est bon, on envoie !
0005C4                00806 ack
                      00807         ; BleuettePi servo mapping
                      00808         ; pos_0  RD2 -> SRV0 
                      00809         ; pos_1  RD3 -> SRV1
                      00810         ; pos_2  RD4 -> SRV2
                      00811         ; pos_3  RD5 -> SRV3
                      00812         ; pos_4  RD6 -> SRV4
                      00813         ; pos_5  RD7 -> SRV5
0005C4 C058 F012      00814         movff pos_0, servo_cons18
0005C8 C059 F013      00815         movff pos_1, servo_cons19
0005CC C05A F014      00816         movff pos_2, servo_cons20
0005D0 C05B F015      00817         movff pos_3, servo_cons21
0005D4 C05C F016      00818         movff pos_4, servo_cons22
0005D8 C05D F017      00819         movff pos_5, servo_cons23
                      00820 
                      00821         ; pos_6  RB0 -> SRV6
                      00822         ; pos_7  RB1 -> SRV7
                      00823         ; pos_8  RB2 -> SRV8
                      00824         ; pos_9  RB3 -> SRV9
                      00825         ; pos_10 RB4 -> SRV10
                      00826         ; pos_11 RB5 -> SRV11
0005DC C05E F008      00827         movff pos_6, servo_cons8
MPASM  5.48                          MAIN.ASM   7-2-2013  22:00:30         PAGE 38
Gestion de 24 servos !

LOC  OBJECT CODE     LINE SOURCE TEXT
  VALUE

0005E0 C05F F009      00828         movff pos_7, servo_cons9
0005E4 C060 F00A      00829         movff pos_8, servo_cons10
0005E8 C061 F00B      00830         movff pos_9, servo_cons11
0005EC C062 F00C      00831         movff pos_10, servo_cons12
0005F0 C063 F00D      00832         movff pos_11, servo_cons13
                      00833 
                      00834         ; pos_12 RD0 -> SRVX
                      00835         ; pos_13 RD1 -> SRVY
0005F4 C064 F010      00836         movff pos_12, servo_cons16
0005F8 C065 F011      00837         movff pos_13, servo_cons17
                      00838 
                      00839         SEND 'O'
0005FC 0E4F               M                 movlw   'O'
0005FE 6EAD               M                 movwf   TXREG
000600 A89E               M                 btfss   PIR1, TXIF
000602 EF00 F003          M                 goto    $ - 2
000606 D7C7           00840         bra     main
                      00841 
000608                00842 nack
                      00843         SEND 'N'
000608 0E4E               M                 movlw   'N'
00060A 6EAD               M                 movwf   TXREG
00060C A89E               M                 btfss   PIR1, TXIF
00060E EF06 F003          M                 goto    $ - 2
000612 EFCB F002      00844         goto main
                      00845 
                      00846 
                      00847 ; Met toutes les consignes à la valeur voulues (dans WREG)
000616                00848 setValue
000616 6E00           00849         movwf   servo_cons0
000618 6E01           00850         movwf   servo_cons1
00061A 6E02           00851         movwf   servo_cons2
00061C 6E03           00852         movwf   servo_cons3
00061E 6E04           00853         movwf   servo_cons4
000620 6E05           00854         movwf   servo_cons5
000622 6E06           00855         movwf   servo_cons6
000624 6E07           00856         movwf   servo_cons7
                      00857         
000626 6E08           00858         movwf   servo_cons8
000628 6E09           00859         movwf   servo_cons9
00062A 6E0A           00860         movwf   servo_cons10
00062C 6E0B           00861         movwf   servo_cons11
00062E 6E0C           00862         movwf   servo_cons12
000630 6E0D           00863         movwf   servo_cons13
000632 6E0E           00864         movwf   servo_cons14
000634 6E0F           00865         movwf   servo_cons15
                      00866         
000636 6E10           00867         movwf   servo_cons16
000638 6E11           00868         movwf   servo_cons17
00063A 6E12           00869         movwf   servo_cons18
00063C 6E13           00870         movwf   servo_cons19
00063E 6E14           00871         movwf   servo_cons20
000640 6E15           00872         movwf   servo_cons21
MPASM  5.48                          MAIN.ASM   7-2-2013  22:00:30         PAGE 39
Gestion de 24 servos !

LOC  OBJECT CODE     LINE SOURCE TEXT
  VALUE

000642 6E16           00873         movwf   servo_cons22
000644 6E17           00874         movwf   servo_cons23
000646 0012           00875         return
                      00876 
000648                00877 clearAllOut
000648 0EC0           00878         movlw   b'11000000'
00064A 168A           00879         andwf   LATB, 1
                      00880 
00064C 6A8C           00881         clrf    LATD
00064E 0012           00882         return
                      00883 
                      00884 
                      00885 ; Tous les ports des servos à 1 ...
                      00886 ; ... sauf ceux qui ont une consigne à 0
000650                00887 setAllPort
                      00888 ; On reprend le principe suivant :
                      00889 ; RA0, RA1, RA2, RA3, RA4, RC0, RC1, RC2 -> Servo 0 à 7
                      00890 ; RB0, RB1, RB2, RB3, RB4, RB5, RE0, RE1 -> Servo 8 à 15
                      00891 ; RD0, RD1, RD2, RD3, RD4, RD5, RD6, RD7 -> Servo 16 à 23
                      00892 ; Inutile de faire une boucle pour gérer le code ci-dessous !
                      00893 
000650 6A43           00894         clrf    buf_PORTB
000652 6A45           00895         clrf    buf_PORTD
                      00896 
                      00897         ; pos_12 RD0 -> SRVX
                      00898         ; pos_13 RD1 -> SRVY
                      00899 
                      00900         ; pos_0  RD2 -> SRV0
                      00901         ; pos_1  RD3 -> SRV1
                      00902         ; pos_2  RD4 -> SRV2
                      00903         ; pos_3  RD5 -> SRV3
                      00904         ; pos_4  RD6 -> SRV4
                      00905         ; pos_5  RD7 -> SRV5
000654 6AE8           00906         clrf    WREG
000656 6612           00907         tstfsz  servo_cons18
000658 0E04           00908         movlw   b'00000100'
00065A 1245           00909         iorwf   buf_PORTD
                      00910 
00065C 6AE8           00911         clrf    WREG
00065E 6613           00912         tstfsz  servo_cons19
000660 0E08           00913         movlw   b'00001000'
000662 1245           00914         iorwf   buf_PORTD
                      00915 
000664 6AE8           00916         clrf    WREG
000666 6614           00917         tstfsz  servo_cons20
000668 0E10           00918         movlw   b'00010000'
00066A 1245           00919         iorwf   buf_PORTD
                      00920 
00066C 6AE8           00921         clrf    WREG
00066E 6615           00922         tstfsz  servo_cons21
000670 0E20           00923         movlw   b'00100000'
000672 1245           00924         iorwf   buf_PORTD
                      00925 
MPASM  5.48                          MAIN.ASM   7-2-2013  22:00:30         PAGE 40
Gestion de 24 servos !

LOC  OBJECT CODE     LINE SOURCE TEXT
  VALUE

000674 6AE8           00926         clrf    WREG
000676 6616           00927         tstfsz  servo_cons22
000678 0E40           00928         movlw   b'01000000'
00067A 1245           00929         iorwf   buf_PORTD
                      00930 
00067C 6AE8           00931         clrf    WREG
00067E 6617           00932         tstfsz  servo_cons23
000680 0E80           00933         movlw   b'10000000'
000682 1245           00934         iorwf   buf_PORTD
                      00935 
000684 6AE8           00936         clrf    WREG
000686 6610           00937         tstfsz  servo_cons16
000688 0E01           00938         movlw   b'00000001'
00068A 1245           00939         iorwf   buf_PORTD
                      00940 
00068C 6AE8           00941         clrf    WREG
00068E 6611           00942         tstfsz  servo_cons17
000690 0E02           00943         movlw   b'00000010'
000692 1245           00944         iorwf   buf_PORTD
                      00945 
                      00946         ; pos_6  RB0 -> SRV6
                      00947         ; pos_7  RB1 -> SRV7
                      00948         ; pos_8  RB2 -> SRV8
                      00949         ; pos_9  RB3 -> SRV9
                      00950         ; pos_10 RB4 -> SRV10
                      00951         ; pos_11 RB5 -> SRV11
000694 6AE8           00952         clrf    WREG
000696 6608           00953         tstfsz  servo_cons8
000698 0E01           00954         movlw   b'00000001'
00069A 1243           00955         iorwf   buf_PORTB
                      00956 
00069C 6AE8           00957         clrf    WREG
00069E 6609           00958         tstfsz  servo_cons9
0006A0 0E02           00959         movlw   b'00000010'
0006A2 1243           00960         iorwf   buf_PORTB
                      00961 
0006A4 6AE8           00962         clrf    WREG
0006A6 660A           00963         tstfsz  servo_cons10
0006A8 0E04           00964         movlw   b'00000100'
0006AA 1243           00965         iorwf   buf_PORTB
                      00966 
0006AC 6AE8           00967         clrf    WREG
0006AE 660B           00968         tstfsz  servo_cons11
0006B0 0E08           00969         movlw   b'00001000'
0006B2 1243           00970         iorwf   buf_PORTB
                      00971 
0006B4 6AE8           00972         clrf    WREG
0006B6 660C           00973         tstfsz  servo_cons12
0006B8 0E10           00974         movlw   b'00010000'
0006BA 1243           00975         iorwf   buf_PORTB
                      00976 
0006BC 6AE8           00977         clrf    WREG
0006BE 660D           00978         tstfsz  servo_cons13
MPASM  5.48                          MAIN.ASM   7-2-2013  22:00:30         PAGE 41
Gestion de 24 servos !

LOC  OBJECT CODE     LINE SOURCE TEXT
  VALUE

0006C0 0E20           00979         movlw   b'00100000'
0006C2 1243           00980         iorwf   buf_PORTB
                      00981 
0006C4 5043           00982         movf    buf_PORTB, W
0006C6 6E8A           00983         movwf   LATB
0006C8 5045           00984         movf    buf_PORTD, W
0006CA 6E8C           00985         movwf   LATD
                      00986 
0006CC 0012           00987         return
                      00988 
                      00989 
                      00990 
                      00991 
                      00992 ; Eteint le port ou les ports spécifiés par le contenu de 3 octets,
                      00993 ; l'adresse du premier des 3 octets étant spécifié dans W
                      00994 ; Les ports utilisés sont A, B, C, D, E, le port C servant
                      00995 ; à recevoir les ordres pour piloter les servos
                      00996 ; x [0;7]       PORTA [0-4], PORTC [0-2]
                      00997 ; x [8;15]      PORTB [0-5], PORTE [1-2]
                      00998 ; x [16;23]     PORTD [0-7]
                      00999 ; RA0, RA1, RA2, RA3, RA4, RC0, RC1, RC2        -> Servo 0 à 7
                      01000 ; RB0, RB1, RB2, RB3, RB4, RB5, RE0, RE1        -> Servo 8 à 15 
                      01001 ; RD0, RD1, RD2, RD3, RD4, RD5, RD6, RD7        -> Servo 16 à 23
0006CE                01002 clrPort
                      01003 
                      01004         ; Si la consigne courante est 0
                      01005         ; Le ou les servo(s) restent comme il sont, à 1
0006CE 503D           01006         movf    current_cons, W
0006D0 E023           01007         bz              _clrPort
                      01008 
                      01009         ; Le premier octet concerne
                      01010         ; les port A et C
0006D2 50E7           01011         movf    INDF1, W
0006D4 0000           01012         nop;
0006D6 0000           01013         nop;
0006D8 0000           01014         nop;
                      01015 ;       andlw   b'000111111'
                      01016 ;       xorwf   LATA, W         ; Pour A
                      01017 ;       movwf   buf_PORTA
                      01018 
0006DA 50E7           01019         movf    INDF1, W
0006DC 0000           01020         nop;
0006DE 0000           01021         nop;
0006E0 0000           01022         nop;
0006E2 0000           01023         nop;
0006E4 0000           01024         nop;
0006E6 0000           01025         nop;
                      01026 ;       rlncf   WREG
                      01027 ;       rlncf   WREG
                      01028 ;       rlncf   WREG
                      01029 ;       andlw   b'00000111'
                      01030 ;       xorwf   LATC, W         ; Pour C
                      01031 ;       movwf   buf_PORTC
MPASM  5.48                          MAIN.ASM   7-2-2013  22:00:30         PAGE 42
Gestion de 24 servos !

LOC  OBJECT CODE     LINE SOURCE TEXT
  VALUE

                      01032 
                      01033         ; Le deuxième octet concerne
                      01034         ; les port B et E
0006E8 50E4           01035         movf    PREINC1, W
0006EA 0B3F           01036         andlw   b'00111111'
0006EC 188A           01037         xorwf   LATB, W         ; Pour B
0006EE 6E43           01038         movwf   buf_PORTB
                      01039 
0006F0 50E6           01040         movf    POSTINC1, W
0006F2 0000           01041         nop;
0006F4 0000           01042         nop;
0006F6 0000           01043         nop;
0006F8 0000           01044         nop;
0006FA 0000           01045         nop;
                      01046 ;       rlncf   WREG
                      01047 ;       rlncf   WREG
                      01048 ;       andlw   b'0000011'
                      01049 ;       xorwf   LATE, W         ; Pour E
                      01050 ;       movwf   buf_PORTE
                      01051 
                      01052         ; Le dernier octet concerne le port D
0006FC 50E6           01053         movf    POSTINC1, W
0006FE 188C           01054         xorwf   LATD, W         ; Pour D
000700 6E45           01055         movwf   buf_PORTD
                      01056 
                      01057         ; Maintenant, on place tout le contenu des buffers ...
                      01058         ; ... dans les ports qui vont bien, ce qui garanti une synchro idéale
                      01059 ;       movf    buf_PORTA, W
                      01060 ;       movwf   LATA
                      01061 ;       movf    buf_PORTC, W
                      01062 ;       movwf   LATC
000702 0000           01063         nop;
000704 0000           01064         nop;
000706 0000           01065         nop;
000708 0000           01066         nop;
                      01067 
00070A 5043           01068         movf    buf_PORTB, W
00070C 6E8A           01069         movwf   LATB
00070E 0000           01070         nop;
000710 0000           01071         nop;
                      01072 ;       movf    buf_PORTE, W
                      01073 ;       movwf   LATE
000712 5045           01074         movf    buf_PORTD, W
000714 6E8C           01075         movwf   LATD
                      01076 
000716 0012           01077         return
                      01078 
                      01079 ; Rattrapage du temps en cas de consigne nul
                      01080 ; Ne surtout pas modifier
000718                01081 _clrPort
                      01082 
000718 2AE1           01083         incf    FSR1L
00071A 2AE1           01084         incf    FSR1L
MPASM  5.48                          MAIN.ASM   7-2-2013  22:00:30         PAGE 43
Gestion de 24 servos !

LOC  OBJECT CODE     LINE SOURCE TEXT
  VALUE

00071C 2AE1           01085         incf    FSR1L
00071E 0000           01086         nop
000720 0000           01087         nop
000722 0000           01088         nop
000724 0000           01089         nop
000726 0000           01090         nop
000728 0000           01091         nop
00072A 0000           01092         nop
                      01093 
00072C 0000           01094         nop
00072E 0000           01095         nop
000730 0000           01096         nop
000732 0000           01097         nop
000734 0000           01098         nop
000736 0000           01099         nop
000738 0000           01100         nop
00073A 0000           01101         nop
00073C 0000           01102         nop
00073E 0000           01103         nop
                      01104 
000740 0000           01105         nop
000742 0000           01106         nop
000744 0000           01107         nop
000746 0000           01108         nop
000748 0000           01109         nop
00074A 0000           01110         nop
00074C 0000           01111         nop
00074E 0000           01112         nop
000750 0000           01113         nop
000752 0000           01114         nop
                      01115 
000754 0000           01116         nop
000756 0000           01117         nop
000758 0000           01118         nop
                      01119 
00075A 0012           01120         return
                      01121 
                      01122 
                      01123 
                      01124 ; Tri !
                      01125 ; TODO: refaire tout le code de tri ci dessous !
                      01126 ; il doit y avoir moyen d'économiser beaucoup de temps CPU...
00075C                01127 sort
                      01128 
00075C EE00 F018      01129         lfsr    FSR0, servo_sorted      ; Pointeur des servos triés
000760 EE11 F018      01130         lfsr    FSR1, servo_val00       ; Pointeur des ports actifs
000764 EE21 F000      01131         lfsr    FSR2, servo_nbr00       ; Pointeur de la quantité courante
                      01132 
000768 CFE9 F051      01133         movff   FSR0L, tmp_FSR0L
00076C CFE2 F053      01134         movff   FSR1H, tmp_FSR1H
000770 CFE1 F052      01135         movff   FSR1L, tmp_FSR1L
000774 CFD9 F054      01136         movff   FSR2L, tmp_FSR2L
                      01137 
MPASM  5.48                          MAIN.ASM   7-2-2013  22:00:30         PAGE 44
Gestion de 24 servos !

LOC  OBJECT CODE     LINE SOURCE TEXT
  VALUE

000778 6A4A           01138         clrf    var_max
                      01139 
00077A 0E18           01140         movlw   NBR_SERVO
00077C 6E50           01141         movwf   cmpt_bcl
                      01142 
00077E                01143 sort_
                      01144 
                      01145         ; Initialisation des variables, pointeurs...
00077E EE00 F000      01146         lfsr    FSR0, servo_cons0       ; Pointeur de consignes
000782 EE10 F04D      01147         lfsr    FSR1, buf_tab0          ; Buffer de données
                      01148 
000786 6849           01149         setf    var_min
                      01150 
000788 6A4D           01151         clrf    buf_tab0
00078A 6A4E           01152         clrf    buf_tab1
00078C 6A4F           01153         clrf    buf_tab2
                      01154 
00078E 0E01           01155         movlw   .1
000790 6E55           01156         movwf   cmpt
000792 6E4C           01157         movwf   mask_tmp
                      01158 
000794 6A56           01159         clrf    bcl
                      01160 
                      01161 ; C'est parti !
000796                01162 _sort
000796 2A56           01163         incf    bcl
000798 0E19           01164         movlw   NBR_SERVO + 1
00079A 6056           01165         cpfslt  bcl                                     ; Si toutes les consignes y sont passées...
00079C D021           01166         bra             _sort_quit                      ; ... on quitte !
                      01167 
00079E 0E18           01168         movlw   NBR_SERVO
0007A0 5C50           01169         subwf   cmpt_bcl, W
0007A2 E003           01170         bz              _sort_last
                      01171 
0007A4 50EF           01172         movf    INDF0, W                        ; Met la consigne courante dans W ...
0007A6 604A           01173         cpfslt  var_max                         ; ... et test si elle est supérieur à ...
0007A8 D013           01174         bra             _sort_paf                       ; ... var_max, on poursuit, sinon, on retourne a
                            u début !
                      01175 
0007AA                01176 _sort_last
0007AA 50EF           01177         movf    INDF0, W                        ; Met la consigne courante dans W ...
0007AC 6249           01178         cpfseq  var_min                         ; Si la consigne courante est égale à var_min ...
0007AE D004           01179         bra             _sort_next
                      01180 
0007B0 504C           01181         movf    mask_tmp, W                     ; ... on va là !
0007B2 12E7           01182         iorwf   INDF1
                      01183 
0007B4 2A55           01184         incf    cmpt
0007B6 D00C           01185         bra             _sort_paf
                      01186 
0007B8                01187 _sort_next
0007B8 6049           01188         cpfslt  var_min                         ; Si la consigne courante est inférieur à var_min ...
0007BA D001           01189         bra             _sort_inf
MPASM  5.48                          MAIN.ASM   7-2-2013  22:00:30         PAGE 45
Gestion de 24 servos !

LOC  OBJECT CODE     LINE SOURCE TEXT
  VALUE

                      01190 
0007BC D009           01191         bra             _sort_paf
                      01192 
0007BE                01193 _sort_inf
0007BE 50EF           01194         movf    INDF0, W                        ; ... on file ici !
0007C0 6E49           01195         movwf   var_min
                      01196 
0007C2 6A4D           01197         clrf    buf_tab0
0007C4 6A4E           01198         clrf    buf_tab1
0007C6 6A4F           01199         clrf    buf_tab2
0007C8 0E01           01200         movlw   .1
0007CA 6E55           01201         movwf   cmpt
                      01202 
0007CC 504C           01203         movf    mask_tmp, W
0007CE 12E7           01204         iorwf   INDF1
                      01205 
0007D0                01206 _sort_paf
0007D0 90D8           01207         bcf             STATUS, C
0007D2 364C           01208         rlcf    mask_tmp
0007D4 A0D8           01209         btfss   STATUS, C
0007D6 D002           01210         bra             _sort_pif
                      01211 
0007D8 364C           01212         rlcf    mask_tmp
0007DA 2AE1           01213         incf    FSR1L
                      01214 
0007DC                01215 _sort_pif
0007DC 2AE9           01216         incf    FSR0L
0007DE D7DB           01217         bra             _sort
                      01218 
                      01219 
0007E0                01220 _sort_quit
                      01221 
0007E0 5049           01222         movf    var_min, W
0007E2 6E4A           01223         movwf   var_max
                      01224 
0007E4 C051 FFE9      01225         movff   tmp_FSR0L, FSR0L        ; servo_sorted  ->      Pointeur de consignes
0007E8 C053 FFE2      01226         movff   tmp_FSR1H, FSR1H        ; servo_val00   ->      Pointeur des ports actifs
0007EC C052 FFE1      01227         movff   tmp_FSR1L, FSR1L
0007F0 C054 FFD9      01228         movff   tmp_FSR2L, FSR2L        ; servo_nbr00   ->      Pointeur de la quantité courante
                      01229 
0007F4 C049 FFEE      01230         movff   var_min, POSTINC0
                      01231 
0007F8 C04D FFE6      01232         movff   buf_tab0, POSTINC1
0007FC C04E FFE6      01233         movff   buf_tab1, POSTINC1
000800 C04F FFE6      01234         movff   buf_tab2, POSTINC1
                      01235 
000804 C055 FFDE      01236         movff   cmpt, POSTINC2
                      01237 
000808 CFE9 F051      01238         movff   FSR0L, tmp_FSR0L        ; Sauvegarde des pointeurs
00080C CFE2 F053      01239         movff   FSR1H, tmp_FSR1H
000810 CFE1 F052      01240         movff   FSR1L, tmp_FSR1L
000814 CFD9 F054      01241         movff   FSR2L, tmp_FSR2L
                      01242 
MPASM  5.48                          MAIN.ASM   7-2-2013  22:00:30         PAGE 46
Gestion de 24 servos !

LOC  OBJECT CODE     LINE SOURCE TEXT
  VALUE

000818 2E50           01243         decfsz  cmpt_bcl
00081A D7B1           01244         bra             sort_
                      01245 
00081C 0012           01246         return
                      01247 
                      01248 
                      01249 
                      01250         END
MPASM  5.48                          MAIN.ASM   7-2-2013  22:00:30         PAGE 47
Gestion de 24 servos !

SYMBOL TABLE
  LABEL                             VALUE 

A                                 00000000
ACCESS                            00000000
ACKDT                             00000005
ACKEN                             00000004
ACKSTAT                           00000006
ADCON0                            00000FC2
ADCON1                            00000FC1
ADCS0                             00000006
ADCS1                             00000007
ADCS2                             00000006
ADDEN                             00000003
ADFM                              00000007
ADIE                              00000006
ADIF                              00000006
ADIP                              00000006
ADON                              00000000
ADRES                             00000FC3
ADRESH                            00000FC4
ADRESL                            00000FC3
AN0                               00000000
AN1                               00000001
AN2                               00000002
AN3                               00000003
AN4                               00000005
AN5                               00000000
AN6                               00000001
AN7                               00000002
BANKED                            00000001
BAUD                              .9600
BCLIE                             00000003
BCLIF                             00000003
BCLIP                             00000003
BF                                00000000
BOR                               00000000
BRGH                              00000002
BSR                               00000FE0
C                                 00000000
CCP1                              00000002
CCP1CON                           00000FBD
CCP1IE                            00000002
CCP1IF                            00000002
CCP1IP                            00000002
CCP1M0                            00000000
CCP1M1                            00000001
CCP1M2                            00000002
CCP1M3                            00000003
CCP1X                             00000005
CCP1Y                             00000004
CCP2A                             00000003
CCP2CON                           00000FBA
CCP2IE                            00000000
CCP2IF                            00000000
CCP2IP                            00000000
MPASM  5.48                          MAIN.ASM   7-2-2013  22:00:30         PAGE 48
Gestion de 24 servos !

SYMBOL TABLE
  LABEL                             VALUE 

CCP2M0                            00000000
CCP2M1                            00000001
CCP2M2                            00000002
CCP2M3                            00000003
CCP2X                             00000005
CCP2Y                             00000004
CCP2_DDRB                         00000003
CCP2_DDRC                         00000001
CCP2_PORTB                        00000003
CCP2_PORTC                        00000001
CCP2_TRISB                        00000003
CCP2_TRISC                        00000001
CCPR1                             00000FBE
CCPR1H                            00000FBF
CCPR1L                            00000FBE
CCPR2                             00000FBB
CCPR2H                            00000FBC
CCPR2L                            00000FBB
CFGS                              00000006
CHS0                              00000003
CHS1                              00000004
CHS2                              00000005
CK                                00000006
CKE                               00000006
CKP                               00000004
CLKO                              00000006
COMMAND_CLEAR                     'C'
COMMAND_INIT                      'I'
COMMAND_PAUSE                     'P'
COMMAND_READAN0                   '0'
COMMAND_READAN1                   '1'
COMMAND_READAN2                   '2'
COMMAND_READAN3                   '3'
COMMAND_READAN4                   '4'
COMMAND_READAN5                   '5'
COMMAND_RESUME                    'R'
COMMAND_SET                       'S'
CONS_ALL_0                        
CREN                              00000004
CS                                00000002
CSRC                              00000007
D                                 00000005
DATA_ADDRESS                      00000005
DC                                00000001
DC1B0                             00000004
DC1B1                             00000005
DC2B0                             00000004
DC2B1                             00000005
DCCPX                             00000005
DDRA                              TRISA
DDRB                              TRISB
DDRC                              TRISC
DDRD                              TRISD
MPASM  5.48                          MAIN.ASM   7-2-2013  22:00:30         PAGE 49
Gestion de 24 servos !

SYMBOL TABLE
  LABEL                             VALUE 

DDRE                              TRISE
DOFF                              
DON                               
DONE                              00000002
D_A                               00000005
D_NOT_A                           00000005
EEADR                             00000FA9
EECON1                            00000FA6
EECON2                            00000FA7
EEDATA                            00000FA8
EEIE                              00000004
EEIF                              00000004
EEIP                              00000004
EEPGD                             00000007
FAST                              00000001
FERR                              00000002
FREE                              00000004
FSR0                              00000000
FSR0H                             00000FEA
FSR0L                             00000FE9
FSR1                              00000001
FSR1H                             00000FE2
FSR1L                             00000FE1
FSR2                              00000002
FSR2H                             00000FDA
FSR2L                             00000FD9
GCEN                              00000007
GIE                               00000007
GIEH                              00000007
GIEL                              00000006
GIE_GIEH                          00000007
GO                                00000002
GO_DONE                           00000002
GO_NOT_DONE                       00000002
HEADER                            0xFF
I2C_DAT                           00000005
I2C_DATA                          00000005
I2C_READ                          00000002
I2C_START                         00000003
I2C_STOP                          00000004
IBF                               00000007
IBOV                              00000005
INDF0                             00000FEF
INDF1                             00000FE7
INDF2                             00000FDF
INT0                              00000000
INT0E                             00000004
INT0F                             00000001
INT0IE                            00000004
INT0IF                            00000001
INT1                              00000001
INT1E                             00000003
INT1F                             00000000
MPASM  5.48                          MAIN.ASM   7-2-2013  22:00:30         PAGE 50
Gestion de 24 servos !

SYMBOL TABLE
  LABEL                             VALUE 

INT1IE                            00000003
INT1IF                            00000000
INT1IP                            00000006
INT1P                             00000006
INT2                              00000002
INT2E                             00000004
INT2F                             00000001
INT2IE                            00000004
INT2IF                            00000001
INT2IP                            00000007
INT2P                             00000007
INTCON                            00000FF2
INTCON1                           00000FF2
INTCON2                           00000FF1
INTCON3                           00000FF0
INTEDG0                           00000006
INTEDG1                           00000005
INTEDG2                           00000004
IPEN                              00000007
IPR1                              00000F9F
IPR2                              00000FA2
IRVST                             00000005
LATA                              00000F89
LATA0                             00000000
LATA1                             00000001
LATA2                             00000002
LATA3                             00000003
LATA4                             00000004
LATA5                             00000005
LATA6                             00000006
LATB                              00000F8A
LATB0                             00000000
LATB1                             00000001
LATB2                             00000002
LATB3                             00000003
LATB4                             00000004
LATB5                             00000005
LATB6                             00000006
LATB7                             00000007
LATC                              00000F8B
LATC0                             00000000
LATC1                             00000001
LATC2                             00000002
LATC3                             00000003
LATC4                             00000004
LATC5                             00000005
LATC6                             00000006
LATC7                             00000007
LATD                              00000F8C
LATD0                             00000000
LATD1                             00000001
LATD2                             00000002
LATD3                             00000003
MPASM  5.48                          MAIN.ASM   7-2-2013  22:00:30         PAGE 51
Gestion de 24 servos !

SYMBOL TABLE
  LABEL                             VALUE 

LATD4                             00000004
LATD5                             00000005
LATD6                             00000006
LATD7                             00000007
LATE                              00000F8D
LATE0                             00000000
LATE1                             00000001
LATE2                             00000002
LVDCON                            00000FD2
LVDEN                             00000004
LVDIE                             00000002
LVDIF                             00000002
LVDIN                             00000005
LVDIP                             00000002
LVDL0                             00000000
LVDL1                             00000001
LVDL2                             00000002
LVDL3                             00000003
MOVLF                             
MOVLFB                            
N                                 00000004
NBR_SERVO                         .24
NOT_A                             00000005
NOT_ADDRESS                       00000005
NOT_BOR                           00000000
NOT_DONE                          00000002
NOT_IPEN                          00000007
NOT_PD                            00000002
NOT_POR                           00000001
NOT_RBPU                          00000007
NOT_RC8                           00000006
NOT_RI                            00000004
NOT_T1SYNC                        00000002
NOT_T3SYNC                        00000002
NOT_TO                            00000003
NOT_TX8                           00000006
NOT_W                             00000002
NOT_WRITE                         00000002
OBF                               00000006
OERR                              00000001
OSC2                              00000006
OSCCON                            00000FD3
OV                                00000003
P                                 00000004
PC                                00000FF9
PCFG0                             00000000
PCFG1                             00000001
PCFG2                             00000002
PCFG3                             00000003
PCL                               00000FF9
PCLATH                            00000FFA
PCLATU                            00000FFB
PD                                00000002
MPASM  5.48                          MAIN.ASM   7-2-2013  22:00:30         PAGE 52
Gestion de 24 servos !

SYMBOL TABLE
  LABEL                             VALUE 

PEIE                              00000006
PEIE_GIEL                         00000006
PEN                               00000002
PGC                               00000006
PGD                               00000007
PGM                               00000005
PHASE_1                           0x00
PHASE_2                           0x01
PHASE_3                           0x02
PHASE_4                           0x03
PIE1                              00000F9D
PIE2                              00000FA0
PIR1                              00000F9E
PIR2                              00000FA1
PLUSW0                            00000FEB
PLUSW1                            00000FE3
PLUSW2                            00000FDB
POR                               00000001
PORTA                             00000F80
PORTB                             00000F81
PORTC                             00000F82
PORTD                             00000F83
PORTE                             00000F84
POSTDEC0                          00000FED
POSTDEC1                          00000FE5
POSTDEC2                          00000FDD
POSTINC0                          00000FEE
POSTINC1                          00000FE6
POSTINC2                          00000FDE
PR2                               00000FCB
PREINC0                           00000FEC
PREINC1                           00000FE4
PREINC2                           00000FDC
PROD                              00000FF3
PRODH                             00000FF4
PRODL                             00000FF3
PSA                               00000003
PSP0                              00000000
PSP1                              00000001
PSP2                              00000002
PSP3                              00000003
PSP4                              00000004
PSP5                              00000005
PSP6                              00000006
PSP7                              00000007
PSPIE                             00000007
PSPIF                             00000007
PSPIP                             00000007
PSPMODE                           00000004
R                                 00000002
RA0                               00000000
RA1                               00000001
RA2                               00000002
MPASM  5.48                          MAIN.ASM   7-2-2013  22:00:30         PAGE 53
Gestion de 24 servos !

SYMBOL TABLE
  LABEL                             VALUE 

RA3                               00000003
RA4                               00000004
RA5                               00000005
RA6                               00000006
RB0                               00000000
RB1                               00000001
RB2                               00000002
RB3                               00000003
RB4                               00000004
RB5                               00000005
RB6                               00000006
RB7                               00000007
RBIE                              00000003
RBIF                              00000000
RBIP                              00000000
RBPU                              00000007
RC0                               00000000
RC1                               00000001
RC2                               00000002
RC3                               00000003
RC4                               00000004
RC5                               00000005
RC6                               00000006
RC7                               00000007
RC8_9                             00000006
RC9                               00000006
RCD8                              00000000
RCEN                              00000003
RCIE                              00000005
RCIF                              00000005
RCIP                              00000005
RCON                              00000FD0
RCREG                             00000FAE
RCSTA                             00000FAB
RD                                00000000
RD0                               00000000
RD1                               00000001
RD16                              00000007
RD2                               00000002
RD3                               00000003
RD4                               00000004
RD5                               00000005
RD6                               00000006
RD7                               00000007
RE0                               00000000
RE1                               00000001
RE2                               00000002
READ_WRITE                        00000002
RI                                00000004
RSEN                              00000001
RX                                00000007
RX9                               00000006
RX9D                              00000000
MPASM  5.48                          MAIN.ASM   7-2-2013  22:00:30         PAGE 54
Gestion de 24 servos !

SYMBOL TABLE
  LABEL                             VALUE 

R_NOT_W                           00000002
R_W                               00000002
S                                 00000003
SCK                               00000003
SCL                               00000003
SCS                               00000000
SDA                               00000004
SDI                               00000004
SDO                               00000005
SEN                               00000000
SEND                              
SMP                               00000007
SP0                               00000000
SP1                               00000001
SP2                               00000002
SP3                               00000003
SP4                               00000004
SPBRG                             00000FAF
SPEN                              00000007
SREN                              00000005
SS                                00000005
SSPADD                            00000FC8
SSPBUF                            00000FC9
SSPCON1                           00000FC6
SSPCON2                           00000FC5
SSPEN                             00000005
SSPIE                             00000003
SSPIF                             00000003
SSPIP                             00000003
SSPM0                             00000000
SSPM1                             00000001
SSPM2                             00000002
SSPM3                             00000003
SSPOV                             00000006
SSPSTAT                           00000FC7
STATUS                            00000FD8
STKFUL                            00000007
STKOVF                            00000007
STKPTR                            00000FFC
STKPTR0                           00000000
STKPTR1                           00000001
STKPTR2                           00000002
STKPTR3                           00000003
STKPTR4                           00000004
STKUNF                            00000006
SWDTE                             00000000
SWDTEN                            00000000
SYNC                              00000004
T08BIT                            00000006
T0CKI                             00000004
T0CON                             00000FD5
T0CS                              00000005
T0IE                              00000005
MPASM  5.48                          MAIN.ASM   7-2-2013  22:00:30         PAGE 55
Gestion de 24 servos !

SYMBOL TABLE
  LABEL                             VALUE 

T0IF                              00000002
T0IP                              00000002
T0PS0                             00000000
T0PS1                             00000001
T0PS2                             00000002
T0SE                              00000004
T1CKI                             00000000
T1CKPS0                           00000004
T1CKPS1                           00000005
T1CON                             00000FCD
T1INSYNC                          00000002
T1OSCEN                           00000003
T1OSI                             00000001
T1OSO                             00000000
T1SYNC                            00000002
T2CKPS0                           00000000
T2CKPS1                           00000001
T2CON                             00000FCA
T3CCP1                            00000003
T3CCP2                            00000006
T3CKPS0                           00000004
T3CKPS1                           00000005
T3CON                             00000FB1
T3INSYNC                          00000002
T3SYNC                            00000002
TABLAT                            00000FF5
TBLPTR                            00000FF6
TBLPTRH                           00000FF7
TBLPTRL                           00000FF6
TBLPTRU                           00000FF8
TMR0                              00000FD6
TMR0H                             00000FD7
TMR0IE                            00000005
TMR0IF                            00000002
TMR0IP                            00000002
TMR0L                             00000FD6
TMR0ON                            00000007
TMR1                              00000FCE
TMR1CS                            00000001
TMR1H                             00000FCF
TMR1IE                            00000000
TMR1IF                            00000000
TMR1IP                            00000000
TMR1L                             00000FCE
TMR1ON                            00000000
TMR2                              00000FCC
TMR2IE                            00000001
TMR2IF                            00000001
TMR2IP                            00000001
TMR2ON                            00000002
TMR3                              00000FB2
TMR3CS                            00000001
TMR3H                             00000FB3
MPASM  5.48                          MAIN.ASM   7-2-2013  22:00:30         PAGE 56
Gestion de 24 servos !

SYMBOL TABLE
  LABEL                             VALUE 

TMR3IE                            00000001
TMR3IF                            00000001
TMR3IP                            00000001
TMR3L                             00000FB2
TMR3ON                            00000000
TO                                00000003
TOS                               00000FFD
TOSH                              00000FFE
TOSL                              00000FFD
TOSU                              00000FFF
TOUTPS0                           00000003
TOUTPS1                           00000004
TOUTPS2                           00000005
TOUTPS3                           00000006
TRISA                             00000F92
TRISA0                            00000000
TRISA1                            00000001
TRISA2                            00000002
TRISA3                            00000003
TRISA4                            00000004
TRISA5                            00000005
TRISA6                            00000006
TRISB                             00000F93
TRISB0                            00000000
TRISB1                            00000001
TRISB2                            00000002
TRISB3                            00000003
TRISB4                            00000004
TRISB5                            00000005
TRISB6                            00000006
TRISB7                            00000007
TRISC                             00000F94
TRISC0                            00000000
TRISC1                            00000001
TRISC2                            00000002
TRISC3                            00000003
TRISC4                            00000004
TRISC5                            00000005
TRISC6                            00000006
TRISC7                            00000007
TRISD                             00000F95
TRISD0                            00000000
TRISD1                            00000001
TRISD2                            00000002
TRISD3                            00000003
TRISD4                            00000004
TRISD5                            00000005
TRISD6                            00000006
TRISD7                            00000007
TRISE                             00000F96
TRISE0                            00000000
TRISE1                            00000001
TRISE2                            00000002
MPASM  5.48                          MAIN.ASM   7-2-2013  22:00:30         PAGE 57
Gestion de 24 servos !

SYMBOL TABLE
  LABEL                             VALUE 

TRMT                              00000001
TX                                00000006
TX8_9                             00000006
TX9                               00000006
TX9D                              00000000
TXD8                              00000000
TXEN                              00000005
TXIE                              00000004
TXIF                              00000004
TXIP                              00000004
TXREG                             00000FAD
TXSTA                             00000FAC
UA                                00000001
VREFM                             00000002
VREFP                             00000003
W                                 00000000
WCOL                              00000007
WDTCON                            00000FD1
WR                                00000001
WREG                              00000FE8
WREN                              00000002
WRERR                             00000003
X                                 ((XTAL / BAUD) / 64) - 1
XTAL                              .40000000
Z                                 00000002
_BORV_20                          000000FF
_BORV_20_2L                       000000FF
_BORV_27_2L                       000000FB
_BORV_42_2L                       000000F7
_BORV_45_2L                       000000F3
_BOR_OFF_2L                       000000FD
_BOR_ON_2L                        000000FF
_CCP2MX_OFF                       000000FE
_CCP2MX_OFF_3H                    000000FE
_CCP2MX_ON                        000000FF
_CCP2MX_ON_3H                     000000FF
_CONFIG1H                         00300001
_CONFIG2H                         00300003
_CONFIG2L                         00300002
_CONFIG3H                         00300005
_CONFIG4L                         00300006
_CONFIG5H                         00300009
_CONFIG5L                         00300008
_CONFIG6H                         0030000B
_CONFIG6L                         0030000A
_CONFIG7H                         0030000D
_CONFIG7L                         0030000C
_CP0_OFF_5L                       000000FF
_CP0_ON_5L                        000000FE
_CP1_OFF_5L                       000000FF
_CP1_ON_5L                        000000FD
_CP2_OFF_5L                       000000FF
_CP2_ON_5L                        000000FB
MPASM  5.48                          MAIN.ASM   7-2-2013  22:00:30         PAGE 58
Gestion de 24 servos !

SYMBOL TABLE
  LABEL                             VALUE 

_CP3_OFF_5L                       000000FF
_CP3_ON_5L                        000000F7
_CPB_OFF_5H                       000000FF
_CPB_ON_5H                        000000BF
_CPD_OFF_5H                       000000FF
_CPD_ON_5H                        0000007F
_DEBUG_OFF_4L                     000000FF
_DEBUG_ON_4L                      0000007F
_DEVID1                           003FFFFE
_DEVID2                           003FFFFF
_EBTR0_OFF_7L                     000000FF
_EBTR0_ON_7L                      000000FE
_EBTR1_OFF_7L                     000000FF
_EBTR1_ON_7L                      000000FD
_EBTR2_OFF_7L                     000000FF
_EBTR2_ON_7L                      000000FB
_EBTR3_OFF_7L                     000000FF
_EBTR3_ON_7L                      000000F7
_EBTRB_OFF_7H                     000000FF
_EBTRB_ON_7H                      000000BF
_ECIO_OSC                         000000FD
_ECIO_OSC_1H                      000000FD
_EC_OSC                           000000FC
_EC_OSC_1H                        000000FC
_HSPLL_OSC                        000000FE
_HSPLL_OSC_1H                     000000FE
_HS_OSC                           000000FA
_HS_OSC_1H                        000000FA
_IDLOC0                           00200000
_IDLOC1                           00200001
_IDLOC2                           00200002
_IDLOC3                           00200003
_IDLOC4                           00200004
_IDLOC5                           00200005
_IDLOC6                           00200006
_IDLOC7                           00200007
_LP_OSC                           000000F8
_LP_OSC_1H                        000000F8
_LVP_OFF_4L                       000000FB
_LVP_ON_4L                        000000FF
_OSCS_OFF_1H                      000000FF
_OSCS_ON_1H                       000000DF
_PWRT_OFF_2L                      000000FF
_PWRT_ON_2L                       000000FE
_RCIO_OSC                         000000FF
_RCIO_OSC_1H                      000000FF
_RC_OSC                           000000FB
_RC_OSC_1H                        000000FB
_STVR_OFF_4L                      000000FE
_STVR_ON_4L                       000000FF
_WDTPS_128_2H                     000000FF
_WDTPS_16_2H                      000000F9
_WDTPS_1_2H                       000000F1
MPASM  5.48                          MAIN.ASM   7-2-2013  22:00:30         PAGE 59
Gestion de 24 servos !

SYMBOL TABLE
  LABEL                             VALUE 

_WDTPS_2_2H                       000000F3
_WDTPS_32_2H                      000000FB
_WDTPS_4_2H                       000000F5
_WDTPS_64_2H                      000000FD
_WDTPS_8_2H                       000000F7
_WDT_OFF_2H                       000000FE
_WDT_ON_2H                        000000FF
_WRT0_OFF_6L                      000000FF
_WRT0_ON_6L                       000000FE
_WRT1_OFF_6L                      000000FF
_WRT1_ON_6L                       000000FD
_WRT2_OFF_6L                      000000FF
_WRT2_ON_6L                       000000FB
_WRT3_OFF_6L                      000000FF
_WRT3_ON_6L                       000000F7
_WRTB_OFF_6H                      000000FF
_WRTB_ON_6H                       000000BF
_WRTC_OFF_6H                      000000FF
_WRTC_ON_6H                       000000DF
_WRTD_OFF_6H                      000000FF
_WRTD_ON_6H                       0000007F
_XT_OSC                           000000F9
_XT_OSC_1H                        000000F9
__18F452                          00000001
_clrPort                          00000718
_init                             00000340
_int1_usart_clear                 00000158
_int1_usart_received_send_ack     00000140
_int1_usart_received_test_ana0    0000009C
_int1_usart_received_test_ana1    000000B2
_int1_usart_received_test_ana2    000000C8
_int1_usart_received_test_ana3    000000DE
_int1_usart_received_test_ana4    000000F4
_int1_usart_received_test_ana5    0000010A
_int1_usart_received_test_clear   00000120
_int1_usart_received_test_init    00000068
_int1_usart_received_test_pause   0000007C
_int1_usart_received_test_resume  0000008E
_int1_usart_received_test_set     0000005C
_inth_Timer                       0000024A
_intl_usart                       0000003E
_intl_usart_end                   00000242
_intl_usart_exit                  00000244
_intl_usart_received_test_comman  00000054
_intl_usart_received_test_contro  0000023E
_intl_usart_received_test_pos0    0000015E
_intl_usart_received_test_pos1    0000016E
_intl_usart_received_test_pos10   000001FE
_intl_usart_received_test_pos11   0000020E
_intl_usart_received_test_pos12   0000021E
_intl_usart_received_test_pos13   0000022E
_intl_usart_received_test_pos2    0000017E
_intl_usart_received_test_pos3    0000018E
MPASM  5.48                          MAIN.ASM   7-2-2013  22:00:30         PAGE 60
Gestion de 24 servos !

SYMBOL TABLE
  LABEL                             VALUE 

_intl_usart_received_test_pos4    0000019E
_intl_usart_received_test_pos5    000001AE
_intl_usart_received_test_pos6    000001BE
_intl_usart_received_test_pos7    000001CE
_intl_usart_received_test_pos8    000001DE
_intl_usart_received_test_pos9    000001EE
_intl_usart_unknow_command        0000014E
_sort                             00000796
_sort_inf                         000007BE
_sort_last                        000007AA
_sort_next                        000007B8
_sort_paf                         000007D0
_sort_pif                         000007DC
_sort_quit                        000007E0
ack                               000005C4
bcl                               00000056
bcl_toto                          00000266
buf_PORTA                         00000042
buf_PORTB                         00000043
buf_PORTC                         00000044
buf_PORTD                         00000045
buf_PORTE                         00000046
buf_tab0                          0000004D
buf_tab1                          0000004E
buf_tab2                          0000004F
clearAllOut                       00000648
clrPort                           000006CE
cmpt                              00000055
cmpt_bcl                          00000050
cmpt_pass                         0000003C
cons_prec                         00000041
csaving_IN_FSR2H                  0000006A
csaving_IN_FSR2L                  00000069
csaving_OUT_FSR2H                 0000006C
csaving_OUT_FSR2L                 0000006B
current_cons                      0000003D
current_qnt                       0000003F
current_servo                     0000003E
inth                              0000001C
inth_end                          0000033A
intl                              00000036
main                              00000596
mask                              0000004B
mask_tmp                          0000004C
nack                              00000608
pause_mode                        00000067
phase                             00000047
phase2                            000002EA
phase3                            00000310
phase4                            00000326
phase_cmpt                        00000048
pos_0                             00000058
pos_1                             00000059
MPASM  5.48                          MAIN.ASM   7-2-2013  22:00:30         PAGE 61
Gestion de 24 servos !

SYMBOL TABLE
  LABEL                             VALUE 

pos_10                            00000062
pos_11                            00000063
pos_12                            00000064
pos_13                            00000065
pos_2                             0000005A
pos_3                             0000005B
pos_4                             0000005C
pos_5                             0000005D
pos_6                             0000005E
pos_7                             0000005F
pos_8                             00000060
pos_9                             00000061
received_counter                  00000057
reception_control                 00000066
servo_cons0                       00000000
servo_cons1                       00000001
servo_cons10                      0000000A
servo_cons11                      0000000B
servo_cons12                      0000000C
servo_cons13                      0000000D
servo_cons14                      0000000E
servo_cons15                      0000000F
servo_cons16                      00000010
servo_cons17                      00000011
servo_cons18                      00000012
servo_cons19                      00000013
servo_cons2                       00000002
servo_cons20                      00000014
servo_cons21                      00000015
servo_cons22                      00000016
servo_cons23                      00000017
servo_cons3                       00000003
servo_cons4                       00000004
servo_cons5                       00000005
servo_cons6                       00000006
servo_cons7                       00000007
servo_cons8                       00000008
servo_cons9                       00000009
servo_nbr00                       00000100
servo_nbr01                       00000101
servo_nbr02                       00000102
servo_nbr03                       00000103
servo_nbr04                       00000104
servo_nbr05                       00000105
servo_nbr06                       00000106
servo_nbr07                       00000107
servo_nbr08                       00000108
servo_nbr09                       00000109
servo_nbr10                       0000010A
servo_nbr11                       0000010B
servo_nbr12                       0000010C
servo_nbr13                       0000010D
servo_nbr14                       0000010E
MPASM  5.48                          MAIN.ASM   7-2-2013  22:00:30         PAGE 62
Gestion de 24 servos !

SYMBOL TABLE
  LABEL                             VALUE 

servo_nbr15                       0000010F
servo_nbr16                       00000110
servo_nbr17                       00000111
servo_nbr18                       00000112
servo_nbr19                       00000113
servo_nbr20                       00000114
servo_nbr21                       00000115
servo_nbr22                       00000116
servo_nbr23                       00000117
servo_sorted                      00000018
servo_val00                       00000118
servo_val01                       00000119
servo_val02                       0000011A
servo_val03                       0000011B
servo_val04                       0000011C
servo_val05                       0000011D
servo_val06                       0000011E
servo_val07                       0000011F
servo_val08                       00000120
servo_val09                       00000121
servo_val10                       00000122
servo_val11                       00000123
servo_val12                       00000124
servo_val13                       00000125
servo_val14                       00000126
servo_val15                       00000127
servo_val16                       00000128
servo_val17                       00000129
servo_val18                       0000012A
servo_val19                       0000012B
servo_val20                       0000012C
servo_val21                       0000012D
servo_val22                       0000012E
servo_val23                       0000012F
servo_val24                       00000130
servo_val25                       00000131
servo_val26                       00000132
servo_val27                       00000133
servo_val28                       00000134
servo_val29                       00000135
servo_val30                       00000136
servo_val31                       00000137
servo_val32                       00000138
servo_val33                       00000139
servo_val34                       0000013A
servo_val35                       0000013B
servo_val36                       0000013C
servo_val37                       0000013D
servo_val38                       0000013E
servo_val39                       0000013F
servo_val40                       00000140
servo_val41                       00000141
servo_val42                       00000142
MPASM  5.48                          MAIN.ASM   7-2-2013  22:00:30         PAGE 63
Gestion de 24 servos !

SYMBOL TABLE
  LABEL                             VALUE 

servo_val43                       00000143
servo_val44                       00000144
servo_val45                       00000145
servo_val46                       00000146
servo_val47                       00000147
servo_val48                       00000148
servo_val49                       00000149
servo_val50                       0000014A
servo_val51                       0000014B
servo_val52                       0000014C
servo_val53                       0000014D
servo_val54                       0000014E
servo_val55                       0000014F
servo_val56                       00000150
servo_val57                       00000151
servo_val58                       00000152
servo_val59                       00000153
servo_val60                       00000154
servo_val61                       00000155
servo_val62                       00000156
servo_val63                       00000157
servo_val64                       00000158
servo_val65                       00000159
servo_val66                       0000015A
servo_val67                       0000015B
servo_val68                       0000015C
servo_val69                       0000015D
servo_val70                       0000015E
servo_val71                       0000015F
setAllPort                        00000650
setValue                          00000616
sort                              0000075C
sort_                             0000077E
tmp_FSR0L                         00000051
tmp_FSR1H                         00000053
tmp_FSR1L                         00000052
tmp_FSR2L                         00000054
total_qnt                         00000040
var_max                           0000004A
var_min                           00000049
wreg_backup                       00000068
MPASM  5.48                          MAIN.ASM   7-2-2013  22:00:30         PAGE 64
Gestion de 24 servos !

MEMORY USAGE MAP ('X' = Used,  '-' = Unused)


0000 : XXXX----XXXX---- --------XXXXXXXX XXXXXXXXXXXXXXXX XXXXXXXXXXXXXXXX
0040 : XXXXXXXXXXXXXXXX XXXXXXXXXXXXXXXX XXXXXXXXXXXXXXXX XXXXXXXXXXXXXXXX
0080 : XXXXXXXXXXXXXXXX XXXXXXXXXXXXXXXX XXXXXXXXXXXXXXXX XXXXXXXXXXXXXXXX
00C0 : XXXXXXXXXXXXXXXX XXXXXXXXXXXXXXXX XXXXXXXXXXXXXXXX XXXXXXXXXXXXXXXX
0100 : XXXXXXXXXXXXXXXX XXXXXXXXXXXXXXXX XXXXXXXXXXXXXXXX XXXXXXXXXXXXXXXX
0140 : XXXXXXXXXXXXXXXX XXXXXXXXXXXXXXXX XXXXXXXXXXXXXXXX XXXXXXXXXXXXXXXX
0180 : XXXXXXXXXXXXXXXX XXXXXXXXXXXXXXXX XXXXXXXXXXXXXXXX XXXXXXXXXXXXXXXX
01C0 : XXXXXXXXXXXXXXXX XXXXXXXXXXXXXXXX XXXXXXXXXXXXXXXX XXXXXXXXXXXXXXXX
0200 : XXXXXXXXXXXXXXXX XXXXXXXXXXXXXXXX XXXXXXXXXXXXXXXX XXXXXXXXXXXXXXXX
0240 : XXXXXXXXXXXXXXXX XXXXXXXXXXXXXXXX XXXXXXXXXXXXXXXX XXXXXXXXXXXXXXXX
0280 : XXXXXXXXXXXXXXXX XXXXXXXXXXXXXXXX XXXXXXXXXXXXXXXX XXXXXXXXXXXXXXXX
02C0 : XXXXXXXXXXXXXXXX XXXXXXXXXXXXXXXX XXXXXXXXXXXXXXXX XXXXXXXXXXXXXXXX
0300 : XXXXXXXXXXXXXXXX XXXXXXXXXXXXXXXX XXXXXXXXXXXXXXXX XXXXXXXXXXXXXXXX
0340 : XXXXXXXXXXXXXXXX XXXXXXXXXXXXXXXX XXXXXXXXXXXXXXXX XXXXXXXXXXXXXXXX
0380 : XXXXXXXXXXXXXXXX XXXXXXXXXXXXXXXX XXXXXXXXXXXXXXXX XXXXXXXXXXXXXXXX
03C0 : XXXXXXXXXXXXXXXX XXXXXXXXXXXXXXXX XXXXXXXXXXXXXXXX XXXXXXXXXXXXXXXX
0400 : XXXXXXXXXXXXXXXX XXXXXXXXXXXXXXXX XXXXXXXXXXXXXXXX XXXXXXXXXXXXXXXX
0440 : XXXXXXXXXXXXXXXX XXXXXXXXXXXXXXXX XXXXXXXXXXXXXXXX XXXXXXXXXXXXXXXX
0480 : XXXXXXXXXXXXXXXX XXXXXXXXXXXXXXXX XXXXXXXXXXXXXXXX XXXXXXXXXXXXXXXX
04C0 : XXXXXXXXXXXXXXXX XXXXXXXXXXXXXXXX XXXXXXXXXXXXXXXX XXXXXXXXXXXXXXXX
0500 : XXXXXXXXXXXXXXXX XXXXXXXXXXXXXXXX XXXXXXXXXXXXXXXX XXXXXXXXXXXXXXXX
0540 : XXXXXXXXXXXXXXXX XXXXXXXXXXXXXXXX XXXXXXXXXXXXXXXX XXXXXXXXXXXXXXXX
0580 : XXXXXXXXXXXXXXXX XXXXXXXXXXXXXXXX XXXXXXXXXXXXXXXX XXXXXXXXXXXXXXXX
05C0 : XXXXXXXXXXXXXXXX XXXXXXXXXXXXXXXX XXXXXXXXXXXXXXXX XXXXXXXXXXXXXXXX
0600 : XXXXXXXXXXXXXXXX XXXXXXXXXXXXXXXX XXXXXXXXXXXXXXXX XXXXXXXXXXXXXXXX
0640 : XXXXXXXXXXXXXXXX XXXXXXXXXXXXXXXX XXXXXXXXXXXXXXXX XXXXXXXXXXXXXXXX
0680 : XXXXXXXXXXXXXXXX XXXXXXXXXXXXXXXX XXXXXXXXXXXXXXXX XXXXXXXXXXXXXXXX
06C0 : XXXXXXXXXXXXXXXX XXXXXXXXXXXXXXXX XXXXXXXXXXXXXXXX XXXXXXXXXXXXXXXX
0700 : XXXXXXXXXXXXXXXX XXXXXXXXXXXXXXXX XXXXXXXXXXXXXXXX XXXXXXXXXXXXXXXX
0740 : XXXXXXXXXXXXXXXX XXXXXXXXXXXXXXXX XXXXXXXXXXXXXXXX XXXXXXXXXXXXXXXX
0780 : XXXXXXXXXXXXXXXX XXXXXXXXXXXXXXXX XXXXXXXXXXXXXXXX XXXXXXXXXXXXXXXX
07C0 : XXXXXXXXXXXXXXXX XXXXXXXXXXXXXXXX XXXXXXXXXXXXXXXX XXXXXXXXXXXXXXXX
0800 : XXXXXXXXXXXXXXXX XXXXXXXXXXXXXX-- ---------------- ----------------
0000 : XXXX--XXXXXXXX-- ---------------- ---------------- ----------------

All other memory blocks unused.

Program Memory Bytes Used:  2074
Program Memory Bytes Free: 30694


Errors   :     0
Warnings :     9 reported,     0 suppressed
Messages :     0 reported,     0 suppressed

